
unexploitable：     文件格式 elf64-x86-64


Disassembly of section .init:

0000000000000618 <.init>:
 618:	48 83 ec 08          	sub    $0x8,%rsp
 61c:	48 8b 05 c5 09 20 00 	mov    0x2009c5(%rip),%rax        # 200fe8 <__cxa_finalize@plt+0x200978>
 623:	48 85 c0             	test   %rax,%rax
 626:	74 02                	je     62a <alarm@plt-0x16>
 628:	ff d0                	callq  *%rax
 62a:	48 83 c4 08          	add    $0x8,%rsp
 62e:	c3                   	retq   

Disassembly of section .plt:

0000000000000630 <alarm@plt-0x10>:
 630:	ff 35 7a 09 20 00    	pushq  0x20097a(%rip)        # 200fb0 <__cxa_finalize@plt+0x200940>
 636:	ff 25 7c 09 20 00    	jmpq   *0x20097c(%rip)        # 200fb8 <__cxa_finalize@plt+0x200948>
 63c:	0f 1f 40 00          	nopl   0x0(%rax)

0000000000000640 <alarm@plt>:
 640:	ff 25 7a 09 20 00    	jmpq   *0x20097a(%rip)        # 200fc0 <__cxa_finalize@plt+0x200950>
 646:	68 00 00 00 00       	pushq  $0x0
 64b:	e9 e0 ff ff ff       	jmpq   630 <alarm@plt-0x10>

0000000000000650 <read@plt>:
 650:	ff 25 72 09 20 00    	jmpq   *0x200972(%rip)        # 200fc8 <__cxa_finalize@plt+0x200958>
 656:	68 01 00 00 00       	pushq  $0x1
 65b:	e9 d0 ff ff ff       	jmpq   630 <alarm@plt-0x10>

0000000000000660 <setvbuf@plt>:
 660:	ff 25 6a 09 20 00    	jmpq   *0x20096a(%rip)        # 200fd0 <__cxa_finalize@plt+0x200960>
 666:	68 02 00 00 00       	pushq  $0x2
 66b:	e9 c0 ff ff ff       	jmpq   630 <alarm@plt-0x10>

Disassembly of section .plt.got:

0000000000000670 <__cxa_finalize@plt>:
 670:	ff 25 82 09 20 00    	jmpq   *0x200982(%rip)        # 200ff8 <__cxa_finalize@plt+0x200988>
 676:	66 90                	xchg   %ax,%ax

Disassembly of section .text:

0000000000000680 <.text>:
 680:	31 ed                	xor    %ebp,%ebp
 682:	49 89 d1             	mov    %rdx,%r9
 685:	5e                   	pop    %rsi
 686:	48 89 e2             	mov    %rsp,%rdx
 689:	48 83 e4 f0          	and    $0xfffffffffffffff0,%rsp
 68d:	50                   	push   %rax
 68e:	54                   	push   %rsp
 68f:	4c 8d 05 ea 01 00 00 	lea    0x1ea(%rip),%r8        # 880 <__cxa_finalize@plt+0x210>
 696:	48 8d 0d 73 01 00 00 	lea    0x173(%rip),%rcx        # 810 <__cxa_finalize@plt+0x1a0>
 69d:	48 8d 3d 4d 01 00 00 	lea    0x14d(%rip),%rdi        # 7f1 <__cxa_finalize@plt+0x181>
 6a4:	ff 15 36 09 20 00    	callq  *0x200936(%rip)        # 200fe0 <__cxa_finalize@plt+0x200970>
 6aa:	f4                   	hlt    
 6ab:	0f 1f 44 00 00       	nopl   0x0(%rax,%rax,1)
 6b0:	48 8d 3d 59 09 20 00 	lea    0x200959(%rip),%rdi        # 201010 <__cxa_finalize@plt+0x2009a0>
 6b7:	48 8d 05 52 09 20 00 	lea    0x200952(%rip),%rax        # 201010 <__cxa_finalize@plt+0x2009a0>
 6be:	48 39 f8             	cmp    %rdi,%rax
 6c1:	74 15                	je     6d8 <__cxa_finalize@plt+0x68>
 6c3:	48 8b 05 0e 09 20 00 	mov    0x20090e(%rip),%rax        # 200fd8 <__cxa_finalize@plt+0x200968>
 6ca:	48 85 c0             	test   %rax,%rax
 6cd:	74 09                	je     6d8 <__cxa_finalize@plt+0x68>
 6cf:	ff e0                	jmpq   *%rax
 6d1:	0f 1f 80 00 00 00 00 	nopl   0x0(%rax)
 6d8:	c3                   	retq   
 6d9:	0f 1f 80 00 00 00 00 	nopl   0x0(%rax)
 6e0:	48 8d 3d 29 09 20 00 	lea    0x200929(%rip),%rdi        # 201010 <__cxa_finalize@plt+0x2009a0>
 6e7:	48 8d 35 22 09 20 00 	lea    0x200922(%rip),%rsi        # 201010 <__cxa_finalize@plt+0x2009a0>
 6ee:	48 29 fe             	sub    %rdi,%rsi
 6f1:	48 c1 fe 03          	sar    $0x3,%rsi
 6f5:	48 89 f0             	mov    %rsi,%rax
 6f8:	48 c1 e8 3f          	shr    $0x3f,%rax
 6fc:	48 01 c6             	add    %rax,%rsi
 6ff:	48 d1 fe             	sar    %rsi
 702:	74 14                	je     718 <__cxa_finalize@plt+0xa8>
 704:	48 8b 05 e5 08 20 00 	mov    0x2008e5(%rip),%rax        # 200ff0 <__cxa_finalize@plt+0x200980>
 70b:	48 85 c0             	test   %rax,%rax
 70e:	74 08                	je     718 <__cxa_finalize@plt+0xa8>
 710:	ff e0                	jmpq   *%rax
 712:	66 0f 1f 44 00 00    	nopw   0x0(%rax,%rax,1)
 718:	c3                   	retq   
 719:	0f 1f 80 00 00 00 00 	nopl   0x0(%rax)
 720:	80 3d 21 09 20 00 00 	cmpb   $0x0,0x200921(%rip)        # 201048 <stderr@@GLIBC_2.2.5+0x8>
 727:	75 2f                	jne    758 <__cxa_finalize@plt+0xe8>
 729:	55                   	push   %rbp
 72a:	48 83 3d c6 08 20 00 	cmpq   $0x0,0x2008c6(%rip)        # 200ff8 <__cxa_finalize@plt+0x200988>
 731:	00 
 732:	48 89 e5             	mov    %rsp,%rbp
 735:	74 0c                	je     743 <__cxa_finalize@plt+0xd3>
 737:	48 8b 3d ca 08 20 00 	mov    0x2008ca(%rip),%rdi        # 201008 <__cxa_finalize@plt+0x200998>
 73e:	e8 2d ff ff ff       	callq  670 <__cxa_finalize@plt>
 743:	e8 68 ff ff ff       	callq  6b0 <__cxa_finalize@plt+0x40>
 748:	c6 05 f9 08 20 00 01 	movb   $0x1,0x2008f9(%rip)        # 201048 <stderr@@GLIBC_2.2.5+0x8>
 74f:	5d                   	pop    %rbp
 750:	c3                   	retq   
 751:	0f 1f 80 00 00 00 00 	nopl   0x0(%rax)
 758:	c3                   	retq   
 759:	0f 1f 80 00 00 00 00 	nopl   0x0(%rax)
 760:	e9 7b ff ff ff       	jmpq   6e0 <__cxa_finalize@plt+0x70>
 765:	55                   	push   %rbp
 766:	48 89 e5             	mov    %rsp,%rbp
 769:	48 8b 05 c0 08 20 00 	mov    0x2008c0(%rip),%rax        # 201030 <stdin@@GLIBC_2.2.5>
 770:	b9 00 00 00 00       	mov    $0x0,%ecx
 775:	ba 02 00 00 00       	mov    $0x2,%edx
 77a:	be 00 00 00 00       	mov    $0x0,%esi
 77f:	48 89 c7             	mov    %rax,%rdi
 782:	e8 d9 fe ff ff       	callq  660 <setvbuf@plt>
 787:	48 8b 05 92 08 20 00 	mov    0x200892(%rip),%rax        # 201020 <stdout@@GLIBC_2.2.5>
 78e:	b9 00 00 00 00       	mov    $0x0,%ecx
 793:	ba 02 00 00 00       	mov    $0x2,%edx
 798:	be 00 00 00 00       	mov    $0x0,%esi
 79d:	48 89 c7             	mov    %rax,%rdi
 7a0:	e8 bb fe ff ff       	callq  660 <setvbuf@plt>
 7a5:	48 8b 05 94 08 20 00 	mov    0x200894(%rip),%rax        # 201040 <stderr@@GLIBC_2.2.5>
 7ac:	b9 00 00 00 00       	mov    $0x0,%ecx
 7b1:	ba 02 00 00 00       	mov    $0x2,%edx
 7b6:	be 00 00 00 00       	mov    $0x0,%esi
 7bb:	48 89 c7             	mov    %rax,%rdi
 7be:	e8 9d fe ff ff       	callq  660 <setvbuf@plt>
 7c3:	bf 3c 00 00 00       	mov    $0x3c,%edi
 7c8:	e8 73 fe ff ff       	callq  640 <alarm@plt>
 7cd:	90                   	nop
 7ce:	5d                   	pop    %rbp
 7cf:	c3                   	retq   
 7d0:	55                   	push   %rbp
 7d1:	48 89 e5             	mov    %rsp,%rbp
 7d4:	48 83 ec 10          	sub    $0x10,%rsp
 7d8:	48 8d 45 f0          	lea    -0x10(%rbp),%rax
 7dc:	ba 00 00 03 00       	mov    $0x30000,%edx
 7e1:	48 89 c6             	mov    %rax,%rsi
 7e4:	bf 00 00 00 00       	mov    $0x0,%edi
 7e9:	e8 62 fe ff ff       	callq  650 <read@plt>
 7ee:	90                   	nop
 7ef:	c9                   	leaveq 
 7f0:	c3                   	retq   
 7f1:	55                   	push   %rbp
 7f2:	48 89 e5             	mov    %rsp,%rbp
 7f5:	b8 00 00 00 00       	mov    $0x0,%eax
 7fa:	e8 d1 ff ff ff       	callq  7d0 <__cxa_finalize@plt+0x160>
 7ff:	b8 00 00 00 00       	mov    $0x0,%eax
 804:	5d                   	pop    %rbp
 805:	c3                   	retq   
 806:	66 2e 0f 1f 84 00 00 	nopw   %cs:0x0(%rax,%rax,1)
 80d:	00 00 00 
 810:	41 57                	push   %r15
 812:	41 56                	push   %r14
 814:	49 89 d7             	mov    %rdx,%r15
 817:	41 55                	push   %r13
 819:	41 54                	push   %r12
 81b:	4c 8d 25 86 05 20 00 	lea    0x200586(%rip),%r12        # 200da8 <__cxa_finalize@plt+0x200738>
 822:	55                   	push   %rbp
 823:	48 8d 2d 86 05 20 00 	lea    0x200586(%rip),%rbp        # 200db0 <__cxa_finalize@plt+0x200740>
 82a:	53                   	push   %rbx
 82b:	41 89 fd             	mov    %edi,%r13d
 82e:	49 89 f6             	mov    %rsi,%r14
 831:	4c 29 e5             	sub    %r12,%rbp
 834:	48 83 ec 08          	sub    $0x8,%rsp
 838:	48 c1 fd 03          	sar    $0x3,%rbp
 83c:	e8 d7 fd ff ff       	callq  618 <alarm@plt-0x28>
 841:	48 85 ed             	test   %rbp,%rbp
 844:	74 20                	je     866 <__cxa_finalize@plt+0x1f6>
 846:	31 db                	xor    %ebx,%ebx
 848:	0f 1f 84 00 00 00 00 	nopl   0x0(%rax,%rax,1)
 84f:	00 
 850:	4c 89 fa             	mov    %r15,%rdx
 853:	4c 89 f6             	mov    %r14,%rsi
 856:	44 89 ef             	mov    %r13d,%edi
 859:	41 ff 14 dc          	callq  *(%r12,%rbx,8)
 85d:	48 83 c3 01          	add    $0x1,%rbx
 861:	48 39 dd             	cmp    %rbx,%rbp
 864:	75 ea                	jne    850 <__cxa_finalize@plt+0x1e0>
 866:	48 83 c4 08          	add    $0x8,%rsp
 86a:	5b                   	pop    %rbx
 86b:	5d                   	pop    %rbp
 86c:	41 5c                	pop    %r12
 86e:	41 5d                	pop    %r13
 870:	41 5e                	pop    %r14
 872:	41 5f                	pop    %r15
 874:	c3                   	retq   
 875:	90                   	nop
 876:	66 2e 0f 1f 84 00 00 	nopw   %cs:0x0(%rax,%rax,1)
 87d:	00 00 00 
 880:	f3 c3                	repz retq 

Disassembly of section .fini:

0000000000000884 <.fini>:
 884:	48 83 ec 08          	sub    $0x8,%rsp
 888:	48 83 c4 08          	add    $0x8,%rsp
 88c:	c3                   	retq   
