
ojs：     文件格式 elf64-x86-64


Disassembly of section .init:

0000000000401ad0 <_init@@Base>:
  401ad0:	48 83 ec 08          	sub    $0x8,%rsp
  401ad4:	48 8b 05 1d 75 22 00 	mov    0x22751d(%rip),%rax        # 628ff8 <__gmon_start__>
  401adb:	48 85 c0             	test   %rax,%rax
  401ade:	74 02                	je     401ae2 <_init@@Base+0x12>
  401ae0:	ff d0                	callq  *%rax
  401ae2:	48 83 c4 08          	add    $0x8,%rsp
  401ae6:	c3                   	retq   

Disassembly of section .plt:

0000000000401af0 <__ctype_toupper_loc@plt-0x10>:
  401af0:	ff 35 12 75 22 00    	pushq  0x227512(%rip)        # 629008 <_fini@@Base+0x20cde4>
  401af6:	ff 25 14 75 22 00    	jmpq   *0x227514(%rip)        # 629010 <_fini@@Base+0x20cdec>
  401afc:	0f 1f 40 00          	nopl   0x0(%rax)

0000000000401b00 <__ctype_toupper_loc@plt>:
  401b00:	ff 25 12 75 22 00    	jmpq   *0x227512(%rip)        # 629018 <__ctype_toupper_loc@GLIBC_2.3>
  401b06:	68 00 00 00 00       	pushq  $0x0
  401b0b:	e9 e0 ff ff ff       	jmpq   401af0 <_init@@Base+0x20>

0000000000401b10 <free@plt>:
  401b10:	ff 25 0a 75 22 00    	jmpq   *0x22750a(%rip)        # 629020 <free@GLIBC_2.2.5>
  401b16:	68 01 00 00 00       	pushq  $0x1
  401b1b:	e9 d0 ff ff ff       	jmpq   401af0 <_init@@Base+0x20>

0000000000401b20 <putchar@plt>:
  401b20:	ff 25 02 75 22 00    	jmpq   *0x227502(%rip)        # 629028 <putchar@GLIBC_2.2.5>
  401b26:	68 02 00 00 00       	pushq  $0x2
  401b2b:	e9 c0 ff ff ff       	jmpq   401af0 <_init@@Base+0x20>

0000000000401b30 <localtime@plt>:
  401b30:	ff 25 fa 74 22 00    	jmpq   *0x2274fa(%rip)        # 629030 <localtime@GLIBC_2.2.5>
  401b36:	68 03 00 00 00       	pushq  $0x3
  401b3b:	e9 b0 ff ff ff       	jmpq   401af0 <_init@@Base+0x20>

0000000000401b40 <__errno_location@plt>:
  401b40:	ff 25 f2 74 22 00    	jmpq   *0x2274f2(%rip)        # 629038 <__errno_location@GLIBC_2.2.5>
  401b46:	68 04 00 00 00       	pushq  $0x4
  401b4b:	e9 a0 ff ff ff       	jmpq   401af0 <_init@@Base+0x20>

0000000000401b50 <strncpy@plt>:
  401b50:	ff 25 ea 74 22 00    	jmpq   *0x2274ea(%rip)        # 629040 <strncpy@GLIBC_2.2.5>
  401b56:	68 05 00 00 00       	pushq  $0x5
  401b5b:	e9 90 ff ff ff       	jmpq   401af0 <_init@@Base+0x20>

0000000000401b60 <strcpy@plt>:
  401b60:	ff 25 e2 74 22 00    	jmpq   *0x2274e2(%rip)        # 629048 <strcpy@GLIBC_2.2.5>
  401b66:	68 06 00 00 00       	pushq  $0x6
  401b6b:	e9 80 ff ff ff       	jmpq   401af0 <_init@@Base+0x20>

0000000000401b70 <puts@plt>:
  401b70:	ff 25 da 74 22 00    	jmpq   *0x2274da(%rip)        # 629050 <puts@GLIBC_2.2.5>
  401b76:	68 07 00 00 00       	pushq  $0x7
  401b7b:	e9 70 ff ff ff       	jmpq   401af0 <_init@@Base+0x20>

0000000000401b80 <ferror@plt>:
  401b80:	ff 25 d2 74 22 00    	jmpq   *0x2274d2(%rip)        # 629058 <ferror@GLIBC_2.2.5>
  401b86:	68 08 00 00 00       	pushq  $0x8
  401b8b:	e9 60 ff ff ff       	jmpq   401af0 <_init@@Base+0x20>

0000000000401b90 <isatty@plt>:
  401b90:	ff 25 ca 74 22 00    	jmpq   *0x2274ca(%rip)        # 629060 <isatty@GLIBC_2.2.5>
  401b96:	68 09 00 00 00       	pushq  $0x9
  401b9b:	e9 50 ff ff ff       	jmpq   401af0 <_init@@Base+0x20>

0000000000401ba0 <__isnan@plt>:
  401ba0:	ff 25 c2 74 22 00    	jmpq   *0x2274c2(%rip)        # 629068 <__isnan@GLIBC_2.2.5>
  401ba6:	68 0a 00 00 00       	pushq  $0xa
  401bab:	e9 40 ff ff ff       	jmpq   401af0 <_init@@Base+0x20>

0000000000401bb0 <history_truncate_file@plt>:
  401bb0:	ff 25 ba 74 22 00    	jmpq   *0x2274ba(%rip)        # 629070 <history_truncate_file>
  401bb6:	68 0b 00 00 00       	pushq  $0xb
  401bbb:	e9 30 ff ff ff       	jmpq   401af0 <_init@@Base+0x20>

0000000000401bc0 <fread@plt>:
  401bc0:	ff 25 b2 74 22 00    	jmpq   *0x2274b2(%rip)        # 629078 <fread@GLIBC_2.2.5>
  401bc6:	68 0c 00 00 00       	pushq  $0xc
  401bcb:	e9 20 ff ff ff       	jmpq   401af0 <_init@@Base+0x20>

0000000000401bd0 <strtod@plt>:
  401bd0:	ff 25 aa 74 22 00    	jmpq   *0x2274aa(%rip)        # 629080 <strtod@GLIBC_2.2.5>
  401bd6:	68 0d 00 00 00       	pushq  $0xd
  401bdb:	e9 10 ff ff ff       	jmpq   401af0 <_init@@Base+0x20>

0000000000401be0 <vsnprintf@plt>:
  401be0:	ff 25 a2 74 22 00    	jmpq   *0x2274a2(%rip)        # 629088 <vsnprintf@GLIBC_2.2.5>
  401be6:	68 0e 00 00 00       	pushq  $0xe
  401beb:	e9 00 ff ff ff       	jmpq   401af0 <_init@@Base+0x20>

0000000000401bf0 <exp@plt>:
  401bf0:	ff 25 9a 74 22 00    	jmpq   *0x22749a(%rip)        # 629090 <exp@GLIBC_2.2.5>
  401bf6:	68 0f 00 00 00       	pushq  $0xf
  401bfb:	e9 f0 fe ff ff       	jmpq   401af0 <_init@@Base+0x20>

0000000000401c00 <add_history@plt>:
  401c00:	ff 25 92 74 22 00    	jmpq   *0x227492(%rip)        # 629098 <add_history>
  401c06:	68 10 00 00 00       	pushq  $0x10
  401c0b:	e9 e0 fe ff ff       	jmpq   401af0 <_init@@Base+0x20>

0000000000401c10 <getpid@plt>:
  401c10:	ff 25 8a 74 22 00    	jmpq   *0x22748a(%rip)        # 6290a0 <getpid@GLIBC_2.2.5>
  401c16:	68 11 00 00 00       	pushq  $0x11
  401c1b:	e9 d0 fe ff ff       	jmpq   401af0 <_init@@Base+0x20>

0000000000401c20 <atan@plt>:
  401c20:	ff 25 82 74 22 00    	jmpq   *0x227482(%rip)        # 6290a8 <atan@GLIBC_2.2.5>
  401c26:	68 12 00 00 00       	pushq  $0x12
  401c2b:	e9 c0 fe ff ff       	jmpq   401af0 <_init@@Base+0x20>

0000000000401c30 <clock@plt>:
  401c30:	ff 25 7a 74 22 00    	jmpq   *0x22747a(%rip)        # 6290b0 <clock@GLIBC_2.2.5>
  401c36:	68 13 00 00 00       	pushq  $0x13
  401c3b:	e9 b0 fe ff ff       	jmpq   401af0 <_init@@Base+0x20>

0000000000401c40 <fclose@plt>:
  401c40:	ff 25 72 74 22 00    	jmpq   *0x227472(%rip)        # 6290b8 <fclose@GLIBC_2.2.5>
  401c46:	68 14 00 00 00       	pushq  $0x14
  401c4b:	e9 a0 fe ff ff       	jmpq   401af0 <_init@@Base+0x20>

0000000000401c50 <clear_history@plt>:
  401c50:	ff 25 6a 74 22 00    	jmpq   *0x22746a(%rip)        # 6290c0 <clear_history>
  401c56:	68 15 00 00 00       	pushq  $0x15
  401c5b:	e9 90 fe ff ff       	jmpq   401af0 <_init@@Base+0x20>

0000000000401c60 <write_history@plt>:
  401c60:	ff 25 62 74 22 00    	jmpq   *0x227462(%rip)        # 6290c8 <write_history>
  401c66:	68 16 00 00 00       	pushq  $0x16
  401c6b:	e9 80 fe ff ff       	jmpq   401af0 <_init@@Base+0x20>

0000000000401c70 <strlen@plt>:
  401c70:	ff 25 5a 74 22 00    	jmpq   *0x22745a(%rip)        # 6290d0 <strlen@GLIBC_2.2.5>
  401c76:	68 17 00 00 00       	pushq  $0x17
  401c7b:	e9 70 fe ff ff       	jmpq   401af0 <_init@@Base+0x20>

0000000000401c80 <read_history@plt>:
  401c80:	ff 25 52 74 22 00    	jmpq   *0x227452(%rip)        # 6290d8 <read_history>
  401c86:	68 18 00 00 00       	pushq  $0x18
  401c8b:	e9 60 fe ff ff       	jmpq   401af0 <_init@@Base+0x20>

0000000000401c90 <getopt_long@plt>:
  401c90:	ff 25 4a 74 22 00    	jmpq   *0x22744a(%rip)        # 6290e0 <getopt_long@GLIBC_2.2.5>
  401c96:	68 19 00 00 00       	pushq  $0x19
  401c9b:	e9 50 fe ff ff       	jmpq   401af0 <_init@@Base+0x20>

0000000000401ca0 <__isinf@plt>:
  401ca0:	ff 25 42 74 22 00    	jmpq   *0x227442(%rip)        # 6290e8 <__isinf@GLIBC_2.2.5>
  401ca6:	68 1a 00 00 00       	pushq  $0x1a
  401cab:	e9 40 fe ff ff       	jmpq   401af0 <_init@@Base+0x20>

0000000000401cb0 <strchr@plt>:
  401cb0:	ff 25 3a 74 22 00    	jmpq   *0x22743a(%rip)        # 6290f0 <strchr@GLIBC_2.2.5>
  401cb6:	68 1b 00 00 00       	pushq  $0x1b
  401cbb:	e9 30 fe ff ff       	jmpq   401af0 <_init@@Base+0x20>

0000000000401cc0 <printf@plt>:
  401cc0:	ff 25 32 74 22 00    	jmpq   *0x227432(%rip)        # 6290f8 <printf@GLIBC_2.2.5>
  401cc6:	68 1c 00 00 00       	pushq  $0x1c
  401ccb:	e9 20 fe ff ff       	jmpq   401af0 <_init@@Base+0x20>

0000000000401cd0 <rewind@plt>:
  401cd0:	ff 25 2a 74 22 00    	jmpq   *0x22742a(%rip)        # 629100 <rewind@GLIBC_2.2.5>
  401cd6:	68 1d 00 00 00       	pushq  $0x1d
  401cdb:	e9 10 fe ff ff       	jmpq   401af0 <_init@@Base+0x20>

0000000000401ce0 <snprintf@plt>:
  401ce0:	ff 25 22 74 22 00    	jmpq   *0x227422(%rip)        # 629108 <snprintf@GLIBC_2.2.5>
  401ce6:	68 1e 00 00 00       	pushq  $0x1e
  401ceb:	e9 00 fe ff ff       	jmpq   401af0 <_init@@Base+0x20>

0000000000401cf0 <gettimeofday@plt>:
  401cf0:	ff 25 1a 74 22 00    	jmpq   *0x22741a(%rip)        # 629110 <gettimeofday@GLIBC_2.2.5>
  401cf6:	68 1f 00 00 00       	pushq  $0x1f
  401cfb:	e9 f0 fd ff ff       	jmpq   401af0 <_init@@Base+0x20>

0000000000401d00 <__assert_fail@plt>:
  401d00:	ff 25 12 74 22 00    	jmpq   *0x227412(%rip)        # 629118 <__assert_fail@GLIBC_2.2.5>
  401d06:	68 20 00 00 00       	pushq  $0x20
  401d0b:	e9 e0 fd ff ff       	jmpq   401af0 <_init@@Base+0x20>

0000000000401d10 <fputs@plt>:
  401d10:	ff 25 0a 74 22 00    	jmpq   *0x22740a(%rip)        # 629120 <fputs@GLIBC_2.2.5>
  401d16:	68 21 00 00 00       	pushq  $0x21
  401d1b:	e9 d0 fd ff ff       	jmpq   401af0 <_init@@Base+0x20>

0000000000401d20 <pcre_exec@plt>:
  401d20:	ff 25 02 74 22 00    	jmpq   *0x227402(%rip)        # 629128 <pcre_exec>
  401d26:	68 22 00 00 00       	pushq  $0x22
  401d2b:	e9 c0 fd ff ff       	jmpq   401af0 <_init@@Base+0x20>

0000000000401d30 <memset@plt>:
  401d30:	ff 25 fa 73 22 00    	jmpq   *0x2273fa(%rip)        # 629130 <memset@GLIBC_2.2.5>
  401d36:	68 23 00 00 00       	pushq  $0x23
  401d3b:	e9 b0 fd ff ff       	jmpq   401af0 <_init@@Base+0x20>

0000000000401d40 <pow@plt>:
  401d40:	ff 25 f2 73 22 00    	jmpq   *0x2273f2(%rip)        # 629138 <pow@GLIBC_2.2.5>
  401d46:	68 24 00 00 00       	pushq  $0x24
  401d4b:	e9 a0 fd ff ff       	jmpq   401af0 <_init@@Base+0x20>

0000000000401d50 <log@plt>:
  401d50:	ff 25 ea 73 22 00    	jmpq   *0x2273ea(%rip)        # 629140 <log@GLIBC_2.2.5>
  401d56:	68 25 00 00 00       	pushq  $0x25
  401d5b:	e9 90 fd ff ff       	jmpq   401af0 <_init@@Base+0x20>

0000000000401d60 <readline@plt>:
  401d60:	ff 25 e2 73 22 00    	jmpq   *0x2273e2(%rip)        # 629148 <readline>
  401d66:	68 26 00 00 00       	pushq  $0x26
  401d6b:	e9 80 fd ff ff       	jmpq   401af0 <_init@@Base+0x20>

0000000000401d70 <alarm@plt>:
  401d70:	ff 25 da 73 22 00    	jmpq   *0x2273da(%rip)        # 629150 <alarm@GLIBC_2.2.5>
  401d76:	68 27 00 00 00       	pushq  $0x27
  401d7b:	e9 70 fd ff ff       	jmpq   401af0 <_init@@Base+0x20>

0000000000401d80 <fmod@plt>:
  401d80:	ff 25 d2 73 22 00    	jmpq   *0x2273d2(%rip)        # 629158 <fmod@GLIBC_2.2.5>
  401d86:	68 28 00 00 00       	pushq  $0x28
  401d8b:	e9 60 fd ff ff       	jmpq   401af0 <_init@@Base+0x20>

0000000000401d90 <cos@plt>:
  401d90:	ff 25 ca 73 22 00    	jmpq   *0x2273ca(%rip)        # 629160 <cos@GLIBC_2.2.5>
  401d96:	68 29 00 00 00       	pushq  $0x29
  401d9b:	e9 50 fd ff ff       	jmpq   401af0 <_init@@Base+0x20>

0000000000401da0 <fputc@plt>:
  401da0:	ff 25 c2 73 22 00    	jmpq   *0x2273c2(%rip)        # 629168 <fputc@GLIBC_2.2.5>
  401da6:	68 2a 00 00 00       	pushq  $0x2a
  401dab:	e9 40 fd ff ff       	jmpq   401af0 <_init@@Base+0x20>

0000000000401db0 <acos@plt>:
  401db0:	ff 25 ba 73 22 00    	jmpq   *0x2273ba(%rip)        # 629170 <acos@GLIBC_2.2.5>
  401db6:	68 2b 00 00 00       	pushq  $0x2b
  401dbb:	e9 30 fd ff ff       	jmpq   401af0 <_init@@Base+0x20>

0000000000401dc0 <srand@plt>:
  401dc0:	ff 25 b2 73 22 00    	jmpq   *0x2273b2(%rip)        # 629178 <srand@GLIBC_2.2.5>
  401dc6:	68 2c 00 00 00       	pushq  $0x2c
  401dcb:	e9 20 fd ff ff       	jmpq   401af0 <_init@@Base+0x20>

0000000000401dd0 <memcmp@plt>:
  401dd0:	ff 25 aa 73 22 00    	jmpq   *0x2273aa(%rip)        # 629180 <memcmp@GLIBC_2.2.5>
  401dd6:	68 2d 00 00 00       	pushq  $0x2d
  401ddb:	e9 10 fd ff ff       	jmpq   401af0 <_init@@Base+0x20>

0000000000401de0 <fgets@plt>:
  401de0:	ff 25 a2 73 22 00    	jmpq   *0x2273a2(%rip)        # 629188 <fgets@GLIBC_2.2.5>
  401de6:	68 2e 00 00 00       	pushq  $0x2e
  401deb:	e9 00 fd ff ff       	jmpq   401af0 <_init@@Base+0x20>

0000000000401df0 <_setjmp@plt>:
  401df0:	ff 25 9a 73 22 00    	jmpq   *0x22739a(%rip)        # 629190 <_setjmp@GLIBC_2.2.5>
  401df6:	68 2f 00 00 00       	pushq  $0x2f
  401dfb:	e9 f0 fc ff ff       	jmpq   401af0 <_init@@Base+0x20>

0000000000401e00 <calloc@plt>:
  401e00:	ff 25 92 73 22 00    	jmpq   *0x227392(%rip)        # 629198 <calloc@GLIBC_2.2.5>
  401e06:	68 30 00 00 00       	pushq  $0x30
  401e0b:	e9 e0 fc ff ff       	jmpq   401af0 <_init@@Base+0x20>

0000000000401e10 <strcmp@plt>:
  401e10:	ff 25 8a 73 22 00    	jmpq   *0x22738a(%rip)        # 6291a0 <strcmp@GLIBC_2.2.5>
  401e16:	68 31 00 00 00       	pushq  $0x31
  401e1b:	e9 d0 fc ff ff       	jmpq   401af0 <_init@@Base+0x20>

0000000000401e20 <pcre_fullinfo@plt>:
  401e20:	ff 25 82 73 22 00    	jmpq   *0x227382(%rip)        # 6291a8 <pcre_fullinfo>
  401e26:	68 32 00 00 00       	pushq  $0x32
  401e2b:	e9 c0 fc ff ff       	jmpq   401af0 <_init@@Base+0x20>

0000000000401e30 <log10@plt>:
  401e30:	ff 25 7a 73 22 00    	jmpq   *0x22737a(%rip)        # 6291b0 <log10@GLIBC_2.2.5>
  401e36:	68 33 00 00 00       	pushq  $0x33
  401e3b:	e9 b0 fc ff ff       	jmpq   401af0 <_init@@Base+0x20>

0000000000401e40 <fprintf@plt>:
  401e40:	ff 25 72 73 22 00    	jmpq   *0x227372(%rip)        # 6291b8 <fprintf@GLIBC_2.2.5>
  401e46:	68 34 00 00 00       	pushq  $0x34
  401e4b:	e9 a0 fc ff ff       	jmpq   401af0 <_init@@Base+0x20>

0000000000401e50 <ftell@plt>:
  401e50:	ff 25 6a 73 22 00    	jmpq   *0x22736a(%rip)        # 6291c0 <ftell@GLIBC_2.2.5>
  401e56:	68 35 00 00 00       	pushq  $0x35
  401e5b:	e9 90 fc ff ff       	jmpq   401af0 <_init@@Base+0x20>

0000000000401e60 <strtol@plt>:
  401e60:	ff 25 62 73 22 00    	jmpq   *0x227362(%rip)        # 6291c8 <strtol@GLIBC_2.2.5>
  401e66:	68 36 00 00 00       	pushq  $0x36
  401e6b:	e9 80 fc ff ff       	jmpq   401af0 <_init@@Base+0x20>

0000000000401e70 <memcpy@plt>:
  401e70:	ff 25 5a 73 22 00    	jmpq   *0x22735a(%rip)        # 6291d0 <memcpy@GLIBC_2.14>
  401e76:	68 37 00 00 00       	pushq  $0x37
  401e7b:	e9 70 fc ff ff       	jmpq   401af0 <_init@@Base+0x20>

0000000000401e80 <time@plt>:
  401e80:	ff 25 52 73 22 00    	jmpq   *0x227352(%rip)        # 6291d8 <time@GLIBC_2.2.5>
  401e86:	68 38 00 00 00       	pushq  $0x38
  401e8b:	e9 60 fc ff ff       	jmpq   401af0 <_init@@Base+0x20>

0000000000401e90 <fileno@plt>:
  401e90:	ff 25 4a 73 22 00    	jmpq   *0x22734a(%rip)        # 6291e0 <fileno@GLIBC_2.2.5>
  401e96:	68 39 00 00 00       	pushq  $0x39
  401e9b:	e9 50 fc ff ff       	jmpq   401af0 <_init@@Base+0x20>

0000000000401ea0 <pcre_compile@plt>:
  401ea0:	ff 25 42 73 22 00    	jmpq   *0x227342(%rip)        # 6291e8 <pcre_compile>
  401ea6:	68 3a 00 00 00       	pushq  $0x3a
  401eab:	e9 40 fc ff ff       	jmpq   401af0 <_init@@Base+0x20>

0000000000401eb0 <malloc@plt>:
  401eb0:	ff 25 3a 73 22 00    	jmpq   *0x22733a(%rip)        # 6291f0 <malloc@GLIBC_2.2.5>
  401eb6:	68 3b 00 00 00       	pushq  $0x3b
  401ebb:	e9 30 fc ff ff       	jmpq   401af0 <_init@@Base+0x20>

0000000000401ec0 <tan@plt>:
  401ec0:	ff 25 32 73 22 00    	jmpq   *0x227332(%rip)        # 6291f8 <tan@GLIBC_2.2.5>
  401ec6:	68 3c 00 00 00       	pushq  $0x3c
  401ecb:	e9 20 fc ff ff       	jmpq   401af0 <_init@@Base+0x20>

0000000000401ed0 <atan2@plt>:
  401ed0:	ff 25 2a 73 22 00    	jmpq   *0x22732a(%rip)        # 629200 <atan2@GLIBC_2.2.5>
  401ed6:	68 3d 00 00 00       	pushq  $0x3d
  401edb:	e9 10 fc ff ff       	jmpq   401af0 <_init@@Base+0x20>

0000000000401ee0 <fseek@plt>:
  401ee0:	ff 25 22 73 22 00    	jmpq   *0x227322(%rip)        # 629208 <fseek@GLIBC_2.2.5>
  401ee6:	68 3e 00 00 00       	pushq  $0x3e
  401eeb:	e9 00 fc ff ff       	jmpq   401af0 <_init@@Base+0x20>

0000000000401ef0 <realloc@plt>:
  401ef0:	ff 25 1a 73 22 00    	jmpq   *0x22731a(%rip)        # 629210 <realloc@GLIBC_2.2.5>
  401ef6:	68 3f 00 00 00       	pushq  $0x3f
  401efb:	e9 f0 fb ff ff       	jmpq   401af0 <_init@@Base+0x20>

0000000000401f00 <setvbuf@plt>:
  401f00:	ff 25 12 73 22 00    	jmpq   *0x227312(%rip)        # 629218 <setvbuf@GLIBC_2.2.5>
  401f06:	68 40 00 00 00       	pushq  $0x40
  401f0b:	e9 e0 fb ff ff       	jmpq   401af0 <_init@@Base+0x20>

0000000000401f10 <longjmp@plt>:
  401f10:	ff 25 0a 73 22 00    	jmpq   *0x22730a(%rip)        # 629220 <longjmp@GLIBC_2.2.5>
  401f16:	68 41 00 00 00       	pushq  $0x41
  401f1b:	e9 d0 fb ff ff       	jmpq   401af0 <_init@@Base+0x20>

0000000000401f20 <strftime@plt>:
  401f20:	ff 25 02 73 22 00    	jmpq   *0x227302(%rip)        # 629228 <strftime@GLIBC_2.2.5>
  401f26:	68 42 00 00 00       	pushq  $0x42
  401f2b:	e9 c0 fb ff ff       	jmpq   401af0 <_init@@Base+0x20>

0000000000401f30 <memmove@plt>:
  401f30:	ff 25 fa 72 22 00    	jmpq   *0x2272fa(%rip)        # 629230 <memmove@GLIBC_2.2.5>
  401f36:	68 43 00 00 00       	pushq  $0x43
  401f3b:	e9 b0 fb ff ff       	jmpq   401af0 <_init@@Base+0x20>

0000000000401f40 <access@plt>:
  401f40:	ff 25 f2 72 22 00    	jmpq   *0x2272f2(%rip)        # 629238 <access@GLIBC_2.2.5>
  401f46:	68 44 00 00 00       	pushq  $0x44
  401f4b:	e9 a0 fb ff ff       	jmpq   401af0 <_init@@Base+0x20>

0000000000401f50 <fopen@plt>:
  401f50:	ff 25 ea 72 22 00    	jmpq   *0x2272ea(%rip)        # 629240 <fopen@GLIBC_2.2.5>
  401f56:	68 45 00 00 00       	pushq  $0x45
  401f5b:	e9 90 fb ff ff       	jmpq   401af0 <_init@@Base+0x20>

0000000000401f60 <vfprintf@plt>:
  401f60:	ff 25 e2 72 22 00    	jmpq   *0x2272e2(%rip)        # 629248 <vfprintf@GLIBC_2.2.5>
  401f66:	68 46 00 00 00       	pushq  $0x46
  401f6b:	e9 80 fb ff ff       	jmpq   401af0 <_init@@Base+0x20>

0000000000401f70 <sin@plt>:
  401f70:	ff 25 da 72 22 00    	jmpq   *0x2272da(%rip)        # 629250 <sin@GLIBC_2.2.5>
  401f76:	68 47 00 00 00       	pushq  $0x47
  401f7b:	e9 70 fb ff ff       	jmpq   401af0 <_init@@Base+0x20>

0000000000401f80 <floor@plt>:
  401f80:	ff 25 d2 72 22 00    	jmpq   *0x2272d2(%rip)        # 629258 <floor@GLIBC_2.2.5>
  401f86:	68 48 00 00 00       	pushq  $0x48
  401f8b:	e9 60 fb ff ff       	jmpq   401af0 <_init@@Base+0x20>

0000000000401f90 <asin@plt>:
  401f90:	ff 25 ca 72 22 00    	jmpq   *0x2272ca(%rip)        # 629260 <asin@GLIBC_2.2.5>
  401f96:	68 49 00 00 00       	pushq  $0x49
  401f9b:	e9 50 fb ff ff       	jmpq   401af0 <_init@@Base+0x20>

0000000000401fa0 <sprintf@plt>:
  401fa0:	ff 25 c2 72 22 00    	jmpq   *0x2272c2(%rip)        # 629268 <sprintf@GLIBC_2.2.5>
  401fa6:	68 4a 00 00 00       	pushq  $0x4a
  401fab:	e9 40 fb ff ff       	jmpq   401af0 <_init@@Base+0x20>

0000000000401fb0 <exit@plt>:
  401fb0:	ff 25 ba 72 22 00    	jmpq   *0x2272ba(%rip)        # 629270 <exit@GLIBC_2.2.5>
  401fb6:	68 4b 00 00 00       	pushq  $0x4b
  401fbb:	e9 30 fb ff ff       	jmpq   401af0 <_init@@Base+0x20>

0000000000401fc0 <fwrite@plt>:
  401fc0:	ff 25 b2 72 22 00    	jmpq   *0x2272b2(%rip)        # 629278 <fwrite@GLIBC_2.2.5>
  401fc6:	68 4c 00 00 00       	pushq  $0x4c
  401fcb:	e9 20 fb ff ff       	jmpq   401af0 <_init@@Base+0x20>

0000000000401fd0 <sqrt@plt>:
  401fd0:	ff 25 aa 72 22 00    	jmpq   *0x2272aa(%rip)        # 629280 <sqrt@GLIBC_2.2.5>
  401fd6:	68 4d 00 00 00       	pushq  $0x4d
  401fdb:	e9 10 fb ff ff       	jmpq   401af0 <_init@@Base+0x20>

0000000000401fe0 <ceil@plt>:
  401fe0:	ff 25 a2 72 22 00    	jmpq   *0x2272a2(%rip)        # 629288 <ceil@GLIBC_2.2.5>
  401fe6:	68 4e 00 00 00       	pushq  $0x4e
  401feb:	e9 00 fb ff ff       	jmpq   401af0 <_init@@Base+0x20>

0000000000401ff0 <strstr@plt>:
  401ff0:	ff 25 9a 72 22 00    	jmpq   *0x22729a(%rip)        # 629290 <strstr@GLIBC_2.2.5>
  401ff6:	68 4f 00 00 00       	pushq  $0x4f
  401ffb:	e9 f0 fa ff ff       	jmpq   401af0 <_init@@Base+0x20>

0000000000402000 <rand@plt>:
  402000:	ff 25 92 72 22 00    	jmpq   *0x227292(%rip)        # 629298 <rand@GLIBC_2.2.5>
  402006:	68 50 00 00 00       	pushq  $0x50
  40200b:	e9 e0 fa ff ff       	jmpq   401af0 <_init@@Base+0x20>

0000000000402010 <__ctype_tolower_loc@plt>:
  402010:	ff 25 8a 72 22 00    	jmpq   *0x22728a(%rip)        # 6292a0 <__ctype_tolower_loc@GLIBC_2.3>
  402016:	68 51 00 00 00       	pushq  $0x51
  40201b:	e9 d0 fa ff ff       	jmpq   401af0 <_init@@Base+0x20>

0000000000402020 <__ctype_b_loc@plt>:
  402020:	ff 25 82 72 22 00    	jmpq   *0x227282(%rip)        # 6292a8 <__ctype_b_loc@GLIBC_2.3>
  402026:	68 52 00 00 00       	pushq  $0x52
  40202b:	e9 c0 fa ff ff       	jmpq   401af0 <_init@@Base+0x20>

Disassembly of section .text:

0000000000402030 <.text>:
  402030:	31 ed                	xor    %ebp,%ebp
  402032:	49 89 d1             	mov    %rdx,%r9
  402035:	5e                   	pop    %rsi
  402036:	48 89 e2             	mov    %rsp,%rdx
  402039:	48 83 e4 f0          	and    $0xfffffffffffffff0,%rsp
  40203d:	50                   	push   %rax
  40203e:	54                   	push   %rsp
  40203f:	49 c7 c0 20 c2 41 00 	mov    $0x41c220,%r8
  402046:	48 c7 c1 b0 c1 41 00 	mov    $0x41c1b0,%rcx
  40204d:	48 c7 c7 f0 46 40 00 	mov    $0x4046f0,%rdi
  402054:	ff 15 96 6f 22 00    	callq  *0x226f96(%rip)        # 628ff0 <__libc_start_main@GLIBC_2.2.5>
  40205a:	f4                   	hlt    
  40205b:	0f 1f 44 00 00       	nopl   0x0(%rax,%rax,1)
  402060:	f3 c3                	repz retq 
  402062:	66 2e 0f 1f 84 00 00 	nopw   %cs:0x0(%rax,%rax,1)
  402069:	00 00 00 
  40206c:	0f 1f 40 00          	nopl   0x0(%rax)
  402070:	b8 98 93 62 00       	mov    $0x629398,%eax
  402075:	48 3d 98 93 62 00    	cmp    $0x629398,%rax
  40207b:	74 13                	je     402090 <__ctype_b_loc@plt+0x70>
  40207d:	b8 00 00 00 00       	mov    $0x0,%eax
  402082:	48 85 c0             	test   %rax,%rax
  402085:	74 09                	je     402090 <__ctype_b_loc@plt+0x70>
  402087:	bf 98 93 62 00       	mov    $0x629398,%edi
  40208c:	ff e0                	jmpq   *%rax
  40208e:	66 90                	xchg   %ax,%ax
  402090:	c3                   	retq   
  402091:	0f 1f 44 00 00       	nopl   0x0(%rax,%rax,1)
  402096:	66 2e 0f 1f 84 00 00 	nopw   %cs:0x0(%rax,%rax,1)
  40209d:	00 00 00 
  4020a0:	be 98 93 62 00       	mov    $0x629398,%esi
  4020a5:	48 81 ee 98 93 62 00 	sub    $0x629398,%rsi
  4020ac:	48 c1 fe 03          	sar    $0x3,%rsi
  4020b0:	48 89 f0             	mov    %rsi,%rax
  4020b3:	48 c1 e8 3f          	shr    $0x3f,%rax
  4020b7:	48 01 c6             	add    %rax,%rsi
  4020ba:	48 d1 fe             	sar    %rsi
  4020bd:	74 11                	je     4020d0 <__ctype_b_loc@plt+0xb0>
  4020bf:	b8 00 00 00 00       	mov    $0x0,%eax
  4020c4:	48 85 c0             	test   %rax,%rax
  4020c7:	74 07                	je     4020d0 <__ctype_b_loc@plt+0xb0>
  4020c9:	bf 98 93 62 00       	mov    $0x629398,%edi
  4020ce:	ff e0                	jmpq   *%rax
  4020d0:	c3                   	retq   
  4020d1:	0f 1f 44 00 00       	nopl   0x0(%rax,%rax,1)
  4020d6:	66 2e 0f 1f 84 00 00 	nopw   %cs:0x0(%rax,%rax,1)
  4020dd:	00 00 00 
  4020e0:	80 3d e1 72 22 00 00 	cmpb   $0x0,0x2272e1(%rip)        # 6293c8 <stderr@@GLIBC_2.2.5+0x8>
  4020e7:	75 17                	jne    402100 <__ctype_b_loc@plt+0xe0>
  4020e9:	55                   	push   %rbp
  4020ea:	48 89 e5             	mov    %rsp,%rbp
  4020ed:	e8 7e ff ff ff       	callq  402070 <__ctype_b_loc@plt+0x50>
  4020f2:	c6 05 cf 72 22 00 01 	movb   $0x1,0x2272cf(%rip)        # 6293c8 <stderr@@GLIBC_2.2.5+0x8>
  4020f9:	5d                   	pop    %rbp
  4020fa:	c3                   	retq   
  4020fb:	0f 1f 44 00 00       	nopl   0x0(%rax,%rax,1)
  402100:	c3                   	retq   
  402101:	0f 1f 44 00 00       	nopl   0x0(%rax,%rax,1)
  402106:	66 2e 0f 1f 84 00 00 	nopw   %cs:0x0(%rax,%rax,1)
  40210d:	00 00 00 
  402110:	eb 8e                	jmp    4020a0 <__ctype_b_loc@plt+0x80>
  402112:	66 2e 0f 1f 84 00 00 	nopw   %cs:0x0(%rax,%rax,1)
  402119:	00 00 00 
  40211c:	0f 1f 40 00          	nopl   0x0(%rax)
  402120:	55                   	push   %rbp
  402121:	41 57                	push   %r15
  402123:	41 56                	push   %r14
  402125:	41 55                	push   %r13
  402127:	41 54                	push   %r12
  402129:	53                   	push   %rbx
  40212a:	48 81 ec 38 15 00 00 	sub    $0x1538,%rsp
  402131:	48 8d 44 24 60       	lea    0x60(%rsp),%rax
  402136:	48 c7 44 24 48 80 00 	movq   $0x80,0x48(%rsp)
  40213d:	00 00 
  40213f:	48 8d 8c 24 e0 00 00 	lea    0xe0(%rsp),%rcx
  402146:	00 
  402147:	4c 8d 9c 24 f0 0e 00 	lea    0xef0(%rsp),%r11
  40214e:	00 
  40214f:	4c 8d b4 24 70 02 00 	lea    0x270(%rsp),%r14
  402156:	00 
  402157:	c7 05 17 73 22 00 00 	movl   $0x0,0x227317(%rip)        # 629478 <stderr@@GLIBC_2.2.5+0xb8>
  40215e:	00 00 00 
  402161:	c7 05 2d 73 22 00 fe 	movl   $0xfffffffe,0x22732d(%rip)        # 629498 <stderr@@GLIBC_2.2.5+0xd8>
  402168:	ff ff ff 
  40216b:	0f 10 05 4e 71 22 00 	movups 0x22714e(%rip),%xmm0        # 6292c0 <_fini@@Base+0x20d09c>
  402172:	0f 29 84 24 70 02 00 	movaps %xmm0,0x270(%rsp)
  402179:	00 
  40217a:	31 d2                	xor    %edx,%edx
  40217c:	48 89 54 24 40       	mov    %rdx,0x40(%rsp)
  402181:	41 b9 c8 00 00 00    	mov    $0xc8,%r9d
  402187:	48 89 44 24 38       	mov    %rax,0x38(%rsp)
  40218c:	4c 89 74 24 58       	mov    %r14,0x58(%rsp)
  402191:	4c 89 5c 24 50       	mov    %r11,0x50(%rsp)
  402196:	49 89 ca             	mov    %rcx,%r10
  402199:	49 89 cd             	mov    %rcx,%r13
  40219c:	45 31 e4             	xor    %r12d,%r12d
  40219f:	eb 1c                	jmp    4021bd <__ctype_b_loc@plt+0x19d>
  4021a1:	66 66 66 66 66 66 2e 	data16 data16 data16 data16 data16 nopw %cs:0x0(%rax,%rax,1)
  4021a8:	0f 1f 84 00 00 00 00 
  4021af:	00 
  4021b0:	48 83 c1 02          	add    $0x2,%rcx
  4021b4:	49 89 c6             	mov    %rax,%r14
  4021b7:	49 89 f3             	mov    %rsi,%r11
  4021ba:	49 89 ca             	mov    %rcx,%r10
  4021bd:	66 45 89 22          	mov    %r12w,(%r10)
  4021c1:	4b 8d 44 4d fe       	lea    -0x2(%r13,%r9,2),%rax
  4021c6:	4c 39 d0             	cmp    %r10,%rax
  4021c9:	0f 87 e6 00 00 00    	ja     4022b5 <__ctype_b_loc@plt+0x295>
  4021cf:	49 81 f9 0f 27 00 00 	cmp    $0x270f,%r9
  4021d6:	0f 87 dd 1d 00 00    	ja     403fb9 <__ctype_b_loc@plt+0x1f99>
  4021dc:	4d 89 d6             	mov    %r10,%r14
  4021df:	4d 01 c9             	add    %r9,%r9
  4021e2:	49 81 f9 10 27 00 00 	cmp    $0x2710,%r9
  4021e9:	b8 10 27 00 00       	mov    $0x2710,%eax
  4021ee:	4c 0f 43 c8          	cmovae %rax,%r9
  4021f2:	49 6b f9 1a          	imul   $0x1a,%r9,%rdi
  4021f6:	48 83 c7 1e          	add    $0x1e,%rdi
  4021fa:	4c 89 cd             	mov    %r9,%rbp
  4021fd:	e8 ae fc ff ff       	callq  401eb0 <malloc@plt>
  402202:	49 89 c7             	mov    %rax,%r15
  402205:	4d 85 ff             	test   %r15,%r15
  402208:	0f 84 ab 1d 00 00    	je     403fb9 <__ctype_b_loc@plt+0x1f99>
  40220e:	4c 89 ee             	mov    %r13,%rsi
  402211:	48 89 74 24 28       	mov    %rsi,0x28(%rsp)
  402216:	49 29 f6             	sub    %rsi,%r14
  402219:	49 d1 fe             	sar    %r14
  40221c:	49 ff c6             	inc    %r14
  40221f:	4b 8d 14 36          	lea    (%r14,%r14,1),%rdx
  402223:	4c 89 ff             	mov    %r15,%rdi
  402226:	e8 45 fc ff ff       	callq  401e70 <memcpy@plt>
  40222b:	4c 8d 6c 2d 0f       	lea    0xf(%rbp,%rbp,1),%r13
  402230:	49 83 e5 f0          	and    $0xfffffffffffffff0,%r13
  402234:	4d 01 fd             	add    %r15,%r13
  402237:	4a 8d 14 f5 00 00 00 	lea    0x0(,%r14,8),%rdx
  40223e:	00 
  40223f:	4c 89 ef             	mov    %r13,%rdi
  402242:	48 8b 74 24 50       	mov    0x50(%rsp),%rsi
  402247:	e8 24 fc ff ff       	callq  401e70 <memcpy@plt>
  40224c:	48 89 6c 24 20       	mov    %rbp,0x20(%rsp)
  402251:	49 8d 6c ed 00       	lea    0x0(%r13,%rbp,8),%rbp
  402256:	4c 89 74 24 30       	mov    %r14,0x30(%rsp)
  40225b:	49 c1 e6 04          	shl    $0x4,%r14
  40225f:	48 89 ef             	mov    %rbp,%rdi
  402262:	48 8b 74 24 58       	mov    0x58(%rsp),%rsi
  402267:	4c 89 f2             	mov    %r14,%rdx
  40226a:	e8 01 fc ff ff       	callq  401e70 <memcpy@plt>
  40226f:	48 8b 7c 24 28       	mov    0x28(%rsp),%rdi
  402274:	48 8d 84 24 e0 00 00 	lea    0xe0(%rsp),%rax
  40227b:	00 
  40227c:	48 39 c7             	cmp    %rax,%rdi
  40227f:	74 05                	je     402286 <__ctype_b_loc@plt+0x266>
  402281:	e8 8a f8 ff ff       	callq  401b10 <free@plt>
  402286:	4c 8b 4c 24 20       	mov    0x20(%rsp),%r9
  40228b:	48 8b 44 24 30       	mov    0x30(%rsp),%rax
  402290:	49 39 c1             	cmp    %rax,%r9
  402293:	0f 8e fc 1c 00 00    	jle    403f95 <__ctype_b_loc@plt+0x1f75>
  402299:	4d 8d 5c c5 f8       	lea    -0x8(%r13,%rax,8),%r11
  40229e:	4d 8d 54 47 fe       	lea    -0x2(%r15,%rax,2),%r10
  4022a3:	4e 8d 74 35 f0       	lea    -0x10(%rbp,%r14,1),%r14
  4022a8:	48 89 6c 24 58       	mov    %rbp,0x58(%rsp)
  4022ad:	4c 89 6c 24 50       	mov    %r13,0x50(%rsp)
  4022b2:	4d 89 fd             	mov    %r15,%r13
  4022b5:	41 81 fc a8 00 00 00 	cmp    $0xa8,%r12d
  4022bc:	0f 84 cf 1c 00 00    	je     403f91 <__ctype_b_loc@plt+0x1f71>
  4022c2:	49 63 dc             	movslq %r12d,%rbx
  4022c5:	0f bf ac 1b 70 cc 41 	movswl 0x41cc70(%rbx,%rbx,1),%ebp
  4022cc:	00 
  4022cd:	81 fd 15 fe ff ff    	cmp    $0xfffffe15,%ebp
  4022d3:	0f 84 d7 00 00 00    	je     4023b0 <__ctype_b_loc@plt+0x390>
  4022d9:	8b 05 b9 71 22 00    	mov    0x2271b9(%rip),%eax        # 629498 <stderr@@GLIBC_2.2.5+0xd8>
  4022df:	83 f8 fe             	cmp    $0xfffffffe,%eax
  4022e2:	75 27                	jne    40230b <__ctype_b_loc@plt+0x2eb>
  4022e4:	4d 89 cf             	mov    %r9,%r15
  4022e7:	4d 89 d4             	mov    %r10,%r12
  4022ea:	4c 89 6c 24 28       	mov    %r13,0x28(%rsp)
  4022ef:	4d 89 dd             	mov    %r11,%r13
  4022f2:	e8 69 26 00 00       	callq  404960 <__ctype_b_loc@plt+0x2940>
  4022f7:	4d 89 eb             	mov    %r13,%r11
  4022fa:	4c 8b 6c 24 28       	mov    0x28(%rsp),%r13
  4022ff:	4d 89 e2             	mov    %r12,%r10
  402302:	4d 89 f9             	mov    %r15,%r9
  402305:	89 05 8d 71 22 00    	mov    %eax,0x22718d(%rip)        # 629498 <stderr@@GLIBC_2.2.5+0xd8>
  40230b:	85 c0                	test   %eax,%eax
  40230d:	7e 17                	jle    402326 <__ctype_b_loc@plt+0x306>
  40230f:	b9 02 00 00 00       	mov    $0x2,%ecx
  402314:	3d 3a 01 00 00       	cmp    $0x13a,%eax
  402319:	77 17                	ja     402332 <__ctype_b_loc@plt+0x312>
  40231b:	48 98                	cltq   
  40231d:	0f b6 88 d0 d0 41 00 	movzbl 0x41d0d0(%rax),%ecx
  402324:	eb 0c                	jmp    402332 <__ctype_b_loc@plt+0x312>
  402326:	c7 05 68 71 22 00 00 	movl   $0x0,0x227168(%rip)        # 629498 <stderr@@GLIBC_2.2.5+0xd8>
  40232d:	00 00 00 
  402330:	31 c9                	xor    %ecx,%ecx
  402332:	8d 04 29             	lea    (%rcx,%rbp,1),%eax
  402335:	3d 2a 0a 00 00       	cmp    $0xa2a,%eax
  40233a:	77 74                	ja     4023b0 <__ctype_b_loc@plt+0x390>
  40233c:	48 98                	cltq   
  40233e:	0f bf 94 00 10 d2 41 	movswl 0x41d210(%rax,%rax,1),%edx
  402345:	00 
  402346:	39 ca                	cmp    %ecx,%edx
  402348:	75 66                	jne    4023b0 <__ctype_b_loc@plt+0x390>
  40234a:	44 0f b7 a4 00 70 e6 	movzwl 0x41e670(%rax,%rax,1),%r12d
  402351:	41 00 
  402353:	45 85 e4             	test   %r12d,%r12d
  402356:	0f 84 79 01 00 00    	je     4024d5 <__ctype_b_loc@plt+0x4b5>
  40235c:	48 8b 44 24 40       	mov    0x40(%rsp),%rax
  402361:	8d 50 ff             	lea    -0x1(%rax),%edx
  402364:	85 c0                	test   %eax,%eax
  402366:	0f 44 d0             	cmove  %eax,%edx
  402369:	c7 05 25 71 22 00 fe 	movl   $0xfffffffe,0x227125(%rip)        # 629498 <stderr@@GLIBC_2.2.5+0xd8>
  402370:	ff ff ff 
  402373:	48 8b 05 2e 71 22 00 	mov    0x22712e(%rip),%rax        # 6294a8 <stderr@@GLIBC_2.2.5+0xe8>
  40237a:	49 89 43 08          	mov    %rax,0x8(%r11)
  40237e:	49 83 c3 08          	add    $0x8,%r11
  402382:	0f 10 05 37 6f 22 00 	movups 0x226f37(%rip),%xmm0        # 6292c0 <_fini@@Base+0x20d09c>
  402389:	41 0f 11 46 10       	movups %xmm0,0x10(%r14)
  40238e:	49 83 c6 10          	add    $0x10,%r14
  402392:	4c 89 f0             	mov    %r14,%rax
  402395:	4c 89 de             	mov    %r11,%rsi
  402398:	4c 89 d1             	mov    %r10,%rcx
  40239b:	48 89 54 24 40       	mov    %rdx,0x40(%rsp)
  4023a0:	e9 0b fe ff ff       	jmpq   4021b0 <__ctype_b_loc@plt+0x190>
  4023a5:	66 66 2e 0f 1f 84 00 	data16 nopw %cs:0x0(%rax,%rax,1)
  4023ac:	00 00 00 00 
  4023b0:	44 0f b7 a4 1b d0 fa 	movzwl 0x41fad0(%rbx,%rbx,1),%r12d
  4023b7:	41 00 
  4023b9:	45 85 e4             	test   %r12d,%r12d
  4023bc:	74 52                	je     402410 <__ctype_b_loc@plt+0x3f0>
  4023be:	4d 63 fc             	movslq %r12d,%r15
  4023c1:	41 0f b6 8f 30 ff 41 	movzbl 0x41ff30(%r15),%ecx
  4023c8:	00 
  4023c9:	b8 01 00 00 00       	mov    $0x1,%eax
  4023ce:	48 29 c8             	sub    %rcx,%rax
  4023d1:	49 8b 04 c3          	mov    (%r11,%rax,8),%rax
  4023d5:	48 89 cd             	mov    %rcx,%rbp
  4023d8:	48 f7 dd             	neg    %rbp
  4023db:	48 c1 e1 04          	shl    $0x4,%rcx
  4023df:	4c 89 f3             	mov    %r14,%rbx
  4023e2:	48 29 cb             	sub    %rcx,%rbx
  4023e5:	45 85 ff             	test   %r15d,%r15d
  4023e8:	74 0a                	je     4023f4 <__ctype_b_loc@plt+0x3d4>
  4023ea:	41 83 fc 7e          	cmp    $0x7e,%r12d
  4023ee:	0f 85 b0 00 00 00    	jne    4024a4 <__ctype_b_loc@plt+0x484>
  4023f4:	48 89 e9             	mov    %rbp,%rcx
  4023f7:	48 c1 e1 04          	shl    $0x4,%rcx
  4023fb:	41 8b 54 0e 08       	mov    0x8(%r14,%rcx,1),%edx
  402400:	45 8b 74 0e 0c       	mov    0xc(%r14,%rcx,1),%r14d
  402405:	44 89 f7             	mov    %r14d,%edi
  402408:	41 89 d0             	mov    %edx,%r8d
  40240b:	e9 a4 00 00 00       	jmpq   4024b4 <__ctype_b_loc@plt+0x494>
  402410:	48 63 05 81 70 22 00 	movslq 0x227081(%rip),%rax        # 629498 <stderr@@GLIBC_2.2.5+0xd8>
  402417:	48 83 f8 fe          	cmp    $0xfffffffffffffffe,%rax
  40241b:	bb fe ff ff ff       	mov    $0xfffffffe,%ebx
  402420:	74 13                	je     402435 <__ctype_b_loc@plt+0x415>
  402422:	bb 02 00 00 00       	mov    $0x2,%ebx
  402427:	3d 3a 01 00 00       	cmp    $0x13a,%eax
  40242c:	77 07                	ja     402435 <__ctype_b_loc@plt+0x415>
  40242e:	0f b6 98 d0 d0 41 00 	movzbl 0x41d0d0(%rax),%ebx
  402435:	48 8b 44 24 40       	mov    0x40(%rsp),%rax
  40243a:	85 c0                	test   %eax,%eax
  40243c:	0f 85 0a 01 00 00    	jne    40254c <__ctype_b_loc@plt+0x52c>
  402442:	4c 89 5c 24 28       	mov    %r11,0x28(%rsp)
  402447:	4c 89 4c 24 20       	mov    %r9,0x20(%rsp)
  40244c:	ff 05 26 70 22 00    	incl   0x227026(%rip)        # 629478 <stderr@@GLIBC_2.2.5+0xb8>
  402452:	48 8d 7c 24 48       	lea    0x48(%rsp),%rdi
  402457:	48 8b 74 24 38       	mov    0x38(%rsp),%rsi
  40245c:	4d 89 d4             	mov    %r10,%r12
  40245f:	4c 89 d2             	mov    %r10,%rdx
  402462:	89 d9                	mov    %ebx,%ecx
  402464:	e8 67 1b 00 00       	callq  403fd0 <__ctype_b_loc@plt+0x1fb0>
  402469:	41 89 c7             	mov    %eax,%r15d
  40246c:	41 83 ff 01          	cmp    $0x1,%r15d
  402470:	74 6b                	je     4024dd <__ctype_b_loc@plt+0x4bd>
  402472:	45 85 ff             	test   %r15d,%r15d
  402475:	0f 85 ab 00 00 00    	jne    402526 <__ctype_b_loc@plt+0x506>
  40247b:	48 8b 7c 24 38       	mov    0x38(%rsp),%rdi
  402480:	e8 eb 1e 00 00       	callq  404370 <__ctype_b_loc@plt+0x2350>
  402485:	44 8b 05 34 6e 22 00 	mov    0x226e34(%rip),%r8d        # 6292c0 <_fini@@Base+0x20d09c>
  40248c:	8b 15 32 6e 22 00    	mov    0x226e32(%rip),%edx        # 6292c4 <_fini@@Base+0x20d0a0>
  402492:	4c 8b 4c 24 20       	mov    0x20(%rsp),%r9
  402497:	4d 89 e2             	mov    %r12,%r10
  40249a:	4c 8b 5c 24 28       	mov    0x28(%rsp),%r11
  40249f:	e9 dc 00 00 00       	jmpq   402580 <__ctype_b_loc@plt+0x560>
  4024a4:	44 8b 43 10          	mov    0x10(%rbx),%r8d
  4024a8:	8b 7b 14             	mov    0x14(%rbx),%edi
  4024ab:	8b 54 0b 08          	mov    0x8(%rbx,%rcx,1),%edx
  4024af:	44 8b 74 0b 0c       	mov    0xc(%rbx,%rcx,1),%r14d
  4024b4:	41 83 c4 fe          	add    $0xfffffffe,%r12d
  4024b8:	41 81 fc 34 01 00 00 	cmp    $0x134,%r12d
  4024bf:	0f 87 ec 19 00 00    	ja     403eb1 <__ctype_b_loc@plt+0x1e91>
  4024c5:	42 ff 24 e5 50 c2 41 	jmpq   *0x41c250(,%r12,8)
  4024cc:	00 
  4024cd:	49 8b 03             	mov    (%r11),%rax
  4024d0:	e9 dc 19 00 00       	jmpq   403eb1 <__ctype_b_loc@plt+0x1e91>
  4024d5:	41 f7 dc             	neg    %r12d
  4024d8:	e9 e1 fe ff ff       	jmpq   4023be <__ctype_b_loc@plt+0x39e>
  4024dd:	48 8b 7c 24 38       	mov    0x38(%rsp),%rdi
  4024e2:	48 8d 44 24 60       	lea    0x60(%rsp),%rax
  4024e7:	48 39 c7             	cmp    %rax,%rdi
  4024ea:	74 05                	je     4024f1 <__ctype_b_loc@plt+0x4d1>
  4024ec:	e8 1f f6 ff ff       	callq  401b10 <free@plt>
  4024f1:	48 8b 7c 24 48       	mov    0x48(%rsp),%rdi
  4024f6:	e8 b5 f9 ff ff       	callq  401eb0 <malloc@plt>
  4024fb:	48 85 c0             	test   %rax,%rax
  4024fe:	0f 84 98 1a 00 00    	je     403f9c <__ctype_b_loc@plt+0x1f7c>
  402504:	48 8d 7c 24 48       	lea    0x48(%rsp),%rdi
  402509:	48 89 c6             	mov    %rax,%rsi
  40250c:	4c 89 e2             	mov    %r12,%rdx
  40250f:	89 d9                	mov    %ebx,%ecx
  402511:	48 89 c3             	mov    %rax,%rbx
  402514:	e8 b7 1a 00 00       	callq  403fd0 <__ctype_b_loc@plt+0x1fb0>
  402519:	41 89 c7             	mov    %eax,%r15d
  40251c:	48 89 5c 24 38       	mov    %rbx,0x38(%rsp)
  402521:	48 89 df             	mov    %rbx,%rdi
  402524:	eb 05                	jmp    40252b <__ctype_b_loc@plt+0x50b>
  402526:	bf 09 0a 42 00       	mov    $0x420a09,%edi
  40252b:	e8 40 1e 00 00       	callq  404370 <__ctype_b_loc@plt+0x2350>
  402530:	41 83 ff 02          	cmp    $0x2,%r15d
  402534:	4c 8b 4c 24 20       	mov    0x20(%rsp),%r9
  402539:	4d 89 e2             	mov    %r12,%r10
  40253c:	48 8b 44 24 40       	mov    0x40(%rsp),%rax
  402541:	4c 8b 5c 24 28       	mov    0x28(%rsp),%r11
  402546:	0f 84 6d 1a 00 00    	je     403fb9 <__ctype_b_loc@plt+0x1f99>
  40254c:	44 8b 05 6d 6d 22 00 	mov    0x226d6d(%rip),%r8d        # 6292c0 <_fini@@Base+0x20d09c>
  402553:	8b 15 6b 6d 22 00    	mov    0x226d6b(%rip),%edx        # 6292c4 <_fini@@Base+0x20d0a0>
  402559:	83 f8 03             	cmp    $0x3,%eax
  40255c:	75 22                	jne    402580 <__ctype_b_loc@plt+0x560>
  40255e:	8b 05 34 6f 22 00    	mov    0x226f34(%rip),%eax        # 629498 <stderr@@GLIBC_2.2.5+0xd8>
  402564:	85 c0                	test   %eax,%eax
  402566:	7e 0c                	jle    402574 <__ctype_b_loc@plt+0x554>
  402568:	c7 05 26 6f 22 00 fe 	movl   $0xfffffffe,0x226f26(%rip)        # 629498 <stderr@@GLIBC_2.2.5+0xd8>
  40256f:	ff ff ff 
  402572:	eb 0c                	jmp    402580 <__ctype_b_loc@plt+0x560>
  402574:	0f 84 cf 19 00 00    	je     403f49 <__ctype_b_loc@plt+0x1f29>
  40257a:	66 0f 1f 44 00 00    	nopw   0x0(%rax,%rax,1)
  402580:	49 8d 46 10          	lea    0x10(%r14),%rax
  402584:	4c 89 d6             	mov    %r10,%rsi
  402587:	4c 29 ee             	sub    %r13,%rsi
  40258a:	31 db                	xor    %ebx,%ebx
  40258c:	31 ff                	xor    %edi,%edi
  40258e:	eb 23                	jmp    4025b3 <__ctype_b_loc@plt+0x593>
  402590:	45 8b 04 fe          	mov    (%r14,%rdi,8),%r8d
  402594:	41 8b 54 fe 04       	mov    0x4(%r14,%rdi,8),%edx
  402599:	49 0f bf 4c 3a fe    	movswq -0x2(%r10,%rdi,1),%rcx
  40259f:	66 8b ac 09 70 cc 41 	mov    0x41cc70(%rcx,%rcx,1),%bp
  4025a6:	00 
  4025a7:	48 83 c7 fe          	add    $0xfffffffffffffffe,%rdi
  4025ab:	48 83 c0 f0          	add    $0xfffffffffffffff0,%rax
  4025af:	48 83 c3 08          	add    $0x8,%rbx
  4025b3:	0f b7 cd             	movzwl %bp,%ecx
  4025b6:	81 f9 15 fe 00 00    	cmp    $0xfe15,%ecx
  4025bc:	75 12                	jne    4025d0 <__ctype_b_loc@plt+0x5b0>
  4025be:	48 89 f1             	mov    %rsi,%rcx
  4025c1:	48 01 f9             	add    %rdi,%rcx
  4025c4:	75 ca                	jne    402590 <__ctype_b_loc@plt+0x570>
  4025c6:	e9 7e 19 00 00       	jmpq   403f49 <__ctype_b_loc@plt+0x1f29>
  4025cb:	0f 1f 44 00 00       	nopl   0x0(%rax,%rax,1)
  4025d0:	0f bf ed             	movswl %bp,%ebp
  4025d3:	83 fd ff             	cmp    $0xffffffff,%ebp
  4025d6:	7c e6                	jl     4025be <__ctype_b_loc@plt+0x59e>
  4025d8:	ff c5                	inc    %ebp
  4025da:	81 fd 2a 0a 00 00    	cmp    $0xa2a,%ebp
  4025e0:	7f dc                	jg     4025be <__ctype_b_loc@plt+0x59e>
  4025e2:	48 63 ed             	movslq %ebp,%rbp
  4025e5:	0f b7 8c 2d 10 d2 41 	movzwl 0x41d210(%rbp,%rbp,1),%ecx
  4025ec:	00 
  4025ed:	83 f9 01             	cmp    $0x1,%ecx
  4025f0:	75 cc                	jne    4025be <__ctype_b_loc@plt+0x59e>
  4025f2:	44 0f b7 a4 2d 70 e6 	movzwl 0x41e670(%rbp,%rbp,1),%r12d
  4025f9:	41 00 
  4025fb:	45 85 e4             	test   %r12d,%r12d
  4025fe:	74 be                	je     4025be <__ctype_b_loc@plt+0x59e>
  402600:	49 8d 73 08          	lea    0x8(%r11),%rsi
  402604:	48 29 de             	sub    %rbx,%rsi
  402607:	48 8b 0d 9a 6e 22 00 	mov    0x226e9a(%rip),%rcx        # 6294a8 <stderr@@GLIBC_2.2.5+0xe8>
  40260e:	49 89 4c bb 08       	mov    %rcx,0x8(%r11,%rdi,4)
  402613:	8b 0d af 6c 22 00    	mov    0x226caf(%rip),%ecx        # 6292c8 <_fini@@Base+0x20d0a4>
  402619:	8b 2d ad 6c 22 00    	mov    0x226cad(%rip),%ebp        # 6292cc <_fini@@Base+0x20d0a8>
  40261f:	45 89 44 fe 10       	mov    %r8d,0x10(%r14,%rdi,8)
  402624:	41 89 54 fe 14       	mov    %edx,0x14(%r14,%rdi,8)
  402629:	41 89 4c fe 18       	mov    %ecx,0x18(%r14,%rdi,8)
  40262e:	41 89 6c fe 1c       	mov    %ebp,0x1c(%r14,%rdi,8)
  402633:	49 01 fa             	add    %rdi,%r10
  402636:	b9 03 00 00 00       	mov    $0x3,%ecx
  40263b:	48 89 4c 24 40       	mov    %rcx,0x40(%rsp)
  402640:	4c 89 d1             	mov    %r10,%rcx
  402643:	e9 68 fb ff ff       	jmpq   4021b0 <__ctype_b_loc@plt+0x190>
  402648:	49 8b 03             	mov    (%r11),%rax
  40264b:	e9 61 18 00 00       	jmpq   403eb1 <__ctype_b_loc@plt+0x1e91>
  402650:	49 8b 03             	mov    (%r11),%rax
  402653:	e9 59 18 00 00       	jmpq   403eb1 <__ctype_b_loc@plt+0x1e91>
  402658:	49 8b 03             	mov    (%r11),%rax
  40265b:	e9 51 18 00 00       	jmpq   403eb1 <__ctype_b_loc@plt+0x1e91>
  402660:	49 8b 03             	mov    (%r11),%rax
  402663:	e9 49 18 00 00       	jmpq   403eb1 <__ctype_b_loc@plt+0x1e91>
  402668:	49 8b 03             	mov    (%r11),%rax
  40266b:	e9 41 18 00 00       	jmpq   403eb1 <__ctype_b_loc@plt+0x1e91>
  402670:	49 8b 73 f8          	mov    -0x8(%r11),%rsi
  402674:	e9 fd 0a 00 00       	jmpq   403176 <__ctype_b_loc@plt+0x1156>
  402679:	49 8b 03             	mov    (%r11),%rax
  40267c:	e9 30 18 00 00       	jmpq   403eb1 <__ctype_b_loc@plt+0x1e91>
  402681:	49 8b 03             	mov    (%r11),%rax
  402684:	e9 28 18 00 00       	jmpq   403eb1 <__ctype_b_loc@plt+0x1e91>
  402689:	49 8b 03             	mov    (%r11),%rax
  40268c:	e9 20 18 00 00       	jmpq   403eb1 <__ctype_b_loc@plt+0x1e91>
  402691:	49 8b 73 e0          	mov    -0x20(%r11),%rsi
  402695:	89 54 24 1c          	mov    %edx,0x1c(%rsp)
  402699:	49 8b 53 f0          	mov    -0x10(%r11),%rdx
  40269d:	49 8b 0b             	mov    (%r11),%rcx
  4026a0:	4c 89 4c 24 20       	mov    %r9,0x20(%rsp)
  4026a5:	44 8b 0d 14 6c 22 00 	mov    0x226c14(%rip),%r9d        # 6292c0 <_fini@@Base+0x20d09c>
  4026ac:	8b 05 12 6c 22 00    	mov    0x226c12(%rip),%eax        # 6292c4 <_fini@@Base+0x20d0a0>
  4026b2:	89 04 24             	mov    %eax,(%rsp)
  4026b5:	89 7c 24 18          	mov    %edi,0x18(%rsp)
  4026b9:	bf 28 00 00 00       	mov    $0x28,%edi
  4026be:	e9 bc 17 00 00       	jmpq   403e7f <__ctype_b_loc@plt+0x1e5f>
  4026c3:	49 8b 73 f0          	mov    -0x10(%r11),%rsi
  4026c7:	89 54 24 1c          	mov    %edx,0x1c(%rsp)
  4026cb:	49 8b 13             	mov    (%r11),%rdx
  4026ce:	4c 89 4c 24 20       	mov    %r9,0x20(%rsp)
  4026d3:	44 8b 0d e6 6b 22 00 	mov    0x226be6(%rip),%r9d        # 6292c0 <_fini@@Base+0x20d09c>
  4026da:	8b 05 e4 6b 22 00    	mov    0x226be4(%rip),%eax        # 6292c4 <_fini@@Base+0x20d0a0>
  4026e0:	89 04 24             	mov    %eax,(%rsp)
  4026e3:	89 7c 24 18          	mov    %edi,0x18(%rsp)
  4026e7:	bf 11 00 00 00       	mov    $0x11,%edi
  4026ec:	31 c9                	xor    %ecx,%ecx
  4026ee:	0f 57 c0             	xorps  %xmm0,%xmm0
  4026f1:	44 89 44 24 14       	mov    %r8d,0x14(%rsp)
  4026f6:	41 b8 a0 09 42 00    	mov    $0x4209a0,%r8d
  4026fc:	e9 89 17 00 00       	jmpq   403e8a <__ctype_b_loc@plt+0x1e6a>
  402701:	49 8b 73 f0          	mov    -0x10(%r11),%rsi
  402705:	89 54 24 1c          	mov    %edx,0x1c(%rsp)
  402709:	49 8b 13             	mov    (%r11),%rdx
  40270c:	4c 89 4c 24 20       	mov    %r9,0x20(%rsp)
  402711:	44 8b 0d a8 6b 22 00 	mov    0x226ba8(%rip),%r9d        # 6292c0 <_fini@@Base+0x20d09c>
  402718:	8b 05 a6 6b 22 00    	mov    0x226ba6(%rip),%eax        # 6292c4 <_fini@@Base+0x20d0a0>
  40271e:	89 04 24             	mov    %eax,(%rsp)
  402721:	89 7c 24 18          	mov    %edi,0x18(%rsp)
  402725:	bf 11 00 00 00       	mov    $0x11,%edi
  40272a:	31 c9                	xor    %ecx,%ecx
  40272c:	0f 57 c0             	xorps  %xmm0,%xmm0
  40272f:	44 89 44 24 14       	mov    %r8d,0x14(%rsp)
  402734:	41 b8 a3 09 42 00    	mov    $0x4209a3,%r8d
  40273a:	e9 4b 17 00 00       	jmpq   403e8a <__ctype_b_loc@plt+0x1e6a>
  40273f:	49 8b 73 f0          	mov    -0x10(%r11),%rsi
  402743:	89 54 24 1c          	mov    %edx,0x1c(%rsp)
  402747:	49 8b 13             	mov    (%r11),%rdx
  40274a:	4c 89 4c 24 20       	mov    %r9,0x20(%rsp)
  40274f:	44 8b 0d 6a 6b 22 00 	mov    0x226b6a(%rip),%r9d        # 6292c0 <_fini@@Base+0x20d09c>
  402756:	8b 05 68 6b 22 00    	mov    0x226b68(%rip),%eax        # 6292c4 <_fini@@Base+0x20d0a0>
  40275c:	89 04 24             	mov    %eax,(%rsp)
  40275f:	89 7c 24 18          	mov    %edi,0x18(%rsp)
  402763:	bf 11 00 00 00       	mov    $0x11,%edi
  402768:	31 c9                	xor    %ecx,%ecx
  40276a:	0f 57 c0             	xorps  %xmm0,%xmm0
  40276d:	44 89 44 24 14       	mov    %r8d,0x14(%rsp)
  402772:	41 b8 a6 09 42 00    	mov    $0x4209a6,%r8d
  402778:	e9 0d 17 00 00       	jmpq   403e8a <__ctype_b_loc@plt+0x1e6a>
  40277d:	49 8b 73 f0          	mov    -0x10(%r11),%rsi
  402781:	89 54 24 1c          	mov    %edx,0x1c(%rsp)
  402785:	49 8b 13             	mov    (%r11),%rdx
  402788:	4c 89 4c 24 20       	mov    %r9,0x20(%rsp)
  40278d:	44 8b 0d 2c 6b 22 00 	mov    0x226b2c(%rip),%r9d        # 6292c0 <_fini@@Base+0x20d09c>
  402794:	8b 05 2a 6b 22 00    	mov    0x226b2a(%rip),%eax        # 6292c4 <_fini@@Base+0x20d0a0>
  40279a:	89 04 24             	mov    %eax,(%rsp)
  40279d:	89 7c 24 18          	mov    %edi,0x18(%rsp)
  4027a1:	bf 11 00 00 00       	mov    $0x11,%edi
  4027a6:	31 c9                	xor    %ecx,%ecx
  4027a8:	0f 57 c0             	xorps  %xmm0,%xmm0
  4027ab:	44 89 44 24 14       	mov    %r8d,0x14(%rsp)
  4027b0:	41 b8 a4 09 42 00    	mov    $0x4209a4,%r8d
  4027b6:	e9 cf 16 00 00       	jmpq   403e8a <__ctype_b_loc@plt+0x1e6a>
  4027bb:	49 8b 73 f0          	mov    -0x10(%r11),%rsi
  4027bf:	89 54 24 1c          	mov    %edx,0x1c(%rsp)
  4027c3:	49 8b 13             	mov    (%r11),%rdx
  4027c6:	4c 89 4c 24 20       	mov    %r9,0x20(%rsp)
  4027cb:	44 8b 0d ee 6a 22 00 	mov    0x226aee(%rip),%r9d        # 6292c0 <_fini@@Base+0x20d09c>
  4027d2:	8b 05 ec 6a 22 00    	mov    0x226aec(%rip),%eax        # 6292c4 <_fini@@Base+0x20d0a0>
  4027d8:	89 04 24             	mov    %eax,(%rsp)
  4027db:	89 7c 24 18          	mov    %edi,0x18(%rsp)
  4027df:	bf 11 00 00 00       	mov    $0x11,%edi
  4027e4:	31 c9                	xor    %ecx,%ecx
  4027e6:	0f 57 c0             	xorps  %xmm0,%xmm0
  4027e9:	44 89 44 24 14       	mov    %r8d,0x14(%rsp)
  4027ee:	41 b8 b0 09 42 00    	mov    $0x4209b0,%r8d
  4027f4:	e9 91 16 00 00       	jmpq   403e8a <__ctype_b_loc@plt+0x1e6a>
  4027f9:	49 8b 73 f0          	mov    -0x10(%r11),%rsi
  4027fd:	89 54 24 1c          	mov    %edx,0x1c(%rsp)
  402801:	49 8b 13             	mov    (%r11),%rdx
  402804:	4c 89 4c 24 20       	mov    %r9,0x20(%rsp)
  402809:	44 8b 0d b0 6a 22 00 	mov    0x226ab0(%rip),%r9d        # 6292c0 <_fini@@Base+0x20d09c>
  402810:	8b 05 ae 6a 22 00    	mov    0x226aae(%rip),%eax        # 6292c4 <_fini@@Base+0x20d0a0>
  402816:	89 04 24             	mov    %eax,(%rsp)
  402819:	89 7c 24 18          	mov    %edi,0x18(%rsp)
  40281d:	bf 11 00 00 00       	mov    $0x11,%edi
  402822:	31 c9                	xor    %ecx,%ecx
  402824:	0f 57 c0             	xorps  %xmm0,%xmm0
  402827:	44 89 44 24 14       	mov    %r8d,0x14(%rsp)
  40282c:	41 b8 a8 09 42 00    	mov    $0x4209a8,%r8d
  402832:	e9 53 16 00 00       	jmpq   403e8a <__ctype_b_loc@plt+0x1e6a>
  402837:	49 8b 73 f0          	mov    -0x10(%r11),%rsi
  40283b:	89 54 24 1c          	mov    %edx,0x1c(%rsp)
  40283f:	49 8b 13             	mov    (%r11),%rdx
  402842:	4c 89 4c 24 20       	mov    %r9,0x20(%rsp)
  402847:	44 8b 0d 72 6a 22 00 	mov    0x226a72(%rip),%r9d        # 6292c0 <_fini@@Base+0x20d09c>
  40284e:	8b 05 70 6a 22 00    	mov    0x226a70(%rip),%eax        # 6292c4 <_fini@@Base+0x20d0a0>
  402854:	89 04 24             	mov    %eax,(%rsp)
  402857:	89 7c 24 18          	mov    %edi,0x18(%rsp)
  40285b:	bf 11 00 00 00       	mov    $0x11,%edi
  402860:	31 c9                	xor    %ecx,%ecx
  402862:	0f 57 c0             	xorps  %xmm0,%xmm0
  402865:	44 89 44 24 14       	mov    %r8d,0x14(%rsp)
  40286a:	41 b8 ab 09 42 00    	mov    $0x4209ab,%r8d
  402870:	e9 15 16 00 00       	jmpq   403e8a <__ctype_b_loc@plt+0x1e6a>
  402875:	49 8b 73 f0          	mov    -0x10(%r11),%rsi
  402879:	89 54 24 1c          	mov    %edx,0x1c(%rsp)
  40287d:	49 8b 13             	mov    (%r11),%rdx
  402880:	4c 89 4c 24 20       	mov    %r9,0x20(%rsp)
  402885:	44 8b 0d 34 6a 22 00 	mov    0x226a34(%rip),%r9d        # 6292c0 <_fini@@Base+0x20d09c>
  40288c:	8b 05 32 6a 22 00    	mov    0x226a32(%rip),%eax        # 6292c4 <_fini@@Base+0x20d0a0>
  402892:	89 04 24             	mov    %eax,(%rsp)
  402895:	89 7c 24 18          	mov    %edi,0x18(%rsp)
  402899:	bf 11 00 00 00       	mov    $0x11,%edi
  40289e:	31 c9                	xor    %ecx,%ecx
  4028a0:	0f 57 c0             	xorps  %xmm0,%xmm0
  4028a3:	44 89 44 24 14       	mov    %r8d,0x14(%rsp)
  4028a8:	41 b8 af 09 42 00    	mov    $0x4209af,%r8d
  4028ae:	e9 d7 15 00 00       	jmpq   403e8a <__ctype_b_loc@plt+0x1e6a>
  4028b3:	49 8b 73 f0          	mov    -0x10(%r11),%rsi
  4028b7:	89 54 24 1c          	mov    %edx,0x1c(%rsp)
  4028bb:	49 8b 13             	mov    (%r11),%rdx
  4028be:	4c 89 4c 24 20       	mov    %r9,0x20(%rsp)
  4028c3:	44 8b 0d f6 69 22 00 	mov    0x2269f6(%rip),%r9d        # 6292c0 <_fini@@Base+0x20d09c>
  4028ca:	8b 05 f4 69 22 00    	mov    0x2269f4(%rip),%eax        # 6292c4 <_fini@@Base+0x20d0a0>
  4028d0:	89 04 24             	mov    %eax,(%rsp)
  4028d3:	89 7c 24 18          	mov    %edi,0x18(%rsp)
  4028d7:	bf 11 00 00 00       	mov    $0x11,%edi
  4028dc:	31 c9                	xor    %ecx,%ecx
  4028de:	0f 57 c0             	xorps  %xmm0,%xmm0
  4028e1:	44 89 44 24 14       	mov    %r8d,0x14(%rsp)
  4028e6:	41 b8 bf 09 42 00    	mov    $0x4209bf,%r8d
  4028ec:	e9 99 15 00 00       	jmpq   403e8a <__ctype_b_loc@plt+0x1e6a>
  4028f1:	49 8b 73 f0          	mov    -0x10(%r11),%rsi
  4028f5:	89 54 24 1c          	mov    %edx,0x1c(%rsp)
  4028f9:	49 8b 13             	mov    (%r11),%rdx
  4028fc:	4c 89 4c 24 20       	mov    %r9,0x20(%rsp)
  402901:	44 8b 0d b8 69 22 00 	mov    0x2269b8(%rip),%r9d        # 6292c0 <_fini@@Base+0x20d09c>
  402908:	8b 05 b6 69 22 00    	mov    0x2269b6(%rip),%eax        # 6292c4 <_fini@@Base+0x20d0a0>
  40290e:	89 04 24             	mov    %eax,(%rsp)
  402911:	89 7c 24 18          	mov    %edi,0x18(%rsp)
  402915:	bf 11 00 00 00       	mov    $0x11,%edi
  40291a:	31 c9                	xor    %ecx,%ecx
  40291c:	0f 57 c0             	xorps  %xmm0,%xmm0
  40291f:	44 89 44 24 14       	mov    %r8d,0x14(%rsp)
  402924:	41 b8 c3 09 42 00    	mov    $0x4209c3,%r8d
  40292a:	e9 5b 15 00 00       	jmpq   403e8a <__ctype_b_loc@plt+0x1e6a>
  40292f:	49 8b 73 f0          	mov    -0x10(%r11),%rsi
  402933:	89 54 24 1c          	mov    %edx,0x1c(%rsp)
  402937:	49 8b 13             	mov    (%r11),%rdx
  40293a:	4c 89 4c 24 20       	mov    %r9,0x20(%rsp)
  40293f:	44 8b 0d 7a 69 22 00 	mov    0x22697a(%rip),%r9d        # 6292c0 <_fini@@Base+0x20d09c>
  402946:	8b 05 78 69 22 00    	mov    0x226978(%rip),%eax        # 6292c4 <_fini@@Base+0x20d0a0>
  40294c:	89 04 24             	mov    %eax,(%rsp)
  40294f:	89 7c 24 18          	mov    %edi,0x18(%rsp)
  402953:	bf 11 00 00 00       	mov    $0x11,%edi
  402958:	31 c9                	xor    %ecx,%ecx
  40295a:	0f 57 c0             	xorps  %xmm0,%xmm0
  40295d:	44 89 44 24 14       	mov    %r8d,0x14(%rsp)
  402962:	41 b8 f8 09 42 00    	mov    $0x4209f8,%r8d
  402968:	e9 1d 15 00 00       	jmpq   403e8a <__ctype_b_loc@plt+0x1e6a>
  40296d:	49 8b 73 f0          	mov    -0x10(%r11),%rsi
  402971:	89 54 24 1c          	mov    %edx,0x1c(%rsp)
  402975:	49 8b 13             	mov    (%r11),%rdx
  402978:	4c 89 4c 24 20       	mov    %r9,0x20(%rsp)
  40297d:	44 8b 0d 3c 69 22 00 	mov    0x22693c(%rip),%r9d        # 6292c0 <_fini@@Base+0x20d09c>
  402984:	8b 05 3a 69 22 00    	mov    0x22693a(%rip),%eax        # 6292c4 <_fini@@Base+0x20d0a0>
  40298a:	89 04 24             	mov    %eax,(%rsp)
  40298d:	89 7c 24 18          	mov    %edi,0x18(%rsp)
  402991:	bf 11 00 00 00       	mov    $0x11,%edi
  402996:	31 c9                	xor    %ecx,%ecx
  402998:	0f 57 c0             	xorps  %xmm0,%xmm0
  40299b:	44 89 44 24 14       	mov    %r8d,0x14(%rsp)
  4029a0:	41 b8 fd 09 42 00    	mov    $0x4209fd,%r8d
  4029a6:	e9 df 14 00 00       	jmpq   403e8a <__ctype_b_loc@plt+0x1e6a>
  4029ab:	49 8b 73 f0          	mov    -0x10(%r11),%rsi
  4029af:	89 54 24 1c          	mov    %edx,0x1c(%rsp)
  4029b3:	49 8b 13             	mov    (%r11),%rdx
  4029b6:	4c 89 4c 24 20       	mov    %r9,0x20(%rsp)
  4029bb:	44 8b 0d fe 68 22 00 	mov    0x2268fe(%rip),%r9d        # 6292c0 <_fini@@Base+0x20d09c>
  4029c2:	8b 05 fc 68 22 00    	mov    0x2268fc(%rip),%eax        # 6292c4 <_fini@@Base+0x20d0a0>
  4029c8:	89 04 24             	mov    %eax,(%rsp)
  4029cb:	89 7c 24 18          	mov    %edi,0x18(%rsp)
  4029cf:	bf 11 00 00 00       	mov    $0x11,%edi
  4029d4:	31 c9                	xor    %ecx,%ecx
  4029d6:	0f 57 c0             	xorps  %xmm0,%xmm0
  4029d9:	44 89 44 24 14       	mov    %r8d,0x14(%rsp)
  4029de:	41 b8 b3 09 42 00    	mov    $0x4209b3,%r8d
  4029e4:	e9 a1 14 00 00       	jmpq   403e8a <__ctype_b_loc@plt+0x1e6a>
  4029e9:	49 8b 73 f0          	mov    -0x10(%r11),%rsi
  4029ed:	89 54 24 1c          	mov    %edx,0x1c(%rsp)
  4029f1:	49 8b 13             	mov    (%r11),%rdx
  4029f4:	4c 89 4c 24 20       	mov    %r9,0x20(%rsp)
  4029f9:	44 8b 0d c0 68 22 00 	mov    0x2268c0(%rip),%r9d        # 6292c0 <_fini@@Base+0x20d09c>
  402a00:	8b 05 be 68 22 00    	mov    0x2268be(%rip),%eax        # 6292c4 <_fini@@Base+0x20d0a0>
  402a06:	89 04 24             	mov    %eax,(%rsp)
  402a09:	89 7c 24 18          	mov    %edi,0x18(%rsp)
  402a0d:	bf 02 00 00 00       	mov    $0x2,%edi
  402a12:	e9 66 14 00 00       	jmpq   403e7d <__ctype_b_loc@plt+0x1e5d>
  402a17:	49 8b 73 f0          	mov    -0x10(%r11),%rsi
  402a1b:	89 54 24 1c          	mov    %edx,0x1c(%rsp)
  402a1f:	49 8b 13             	mov    (%r11),%rdx
  402a22:	4c 89 4c 24 20       	mov    %r9,0x20(%rsp)
  402a27:	44 8b 0d 92 68 22 00 	mov    0x226892(%rip),%r9d        # 6292c0 <_fini@@Base+0x20d09c>
  402a2e:	8b 05 90 68 22 00    	mov    0x226890(%rip),%eax        # 6292c4 <_fini@@Base+0x20d0a0>
  402a34:	89 04 24             	mov    %eax,(%rsp)
  402a37:	89 7c 24 18          	mov    %edi,0x18(%rsp)
  402a3b:	bf 02 00 00 00       	mov    $0x2,%edi
  402a40:	31 c9                	xor    %ecx,%ecx
  402a42:	0f 57 c0             	xorps  %xmm0,%xmm0
  402a45:	44 89 44 24 14       	mov    %r8d,0x14(%rsp)
  402a4a:	41 b8 a9 09 42 00    	mov    $0x4209a9,%r8d
  402a50:	e9 35 14 00 00       	jmpq   403e8a <__ctype_b_loc@plt+0x1e6a>
  402a55:	89 54 24 1c          	mov    %edx,0x1c(%rsp)
  402a59:	49 8b 13             	mov    (%r11),%rdx
  402a5c:	49 8b 73 f0          	mov    -0x10(%r11),%rsi
  402a60:	44 89 44 24 14       	mov    %r8d,0x14(%rsp)
  402a65:	4d 8b 43 f8          	mov    -0x8(%r11),%r8
  402a69:	4c 89 4c 24 20       	mov    %r9,0x20(%rsp)
  402a6e:	44 8b 0d 4b 68 22 00 	mov    0x22684b(%rip),%r9d        # 6292c0 <_fini@@Base+0x20d09c>
  402a75:	8b 05 49 68 22 00    	mov    0x226849(%rip),%eax        # 6292c4 <_fini@@Base+0x20d0a0>
  402a7b:	89 04 24             	mov    %eax,(%rsp)
  402a7e:	89 7c 24 18          	mov    %edi,0x18(%rsp)
  402a82:	bf 02 00 00 00       	mov    $0x2,%edi
  402a87:	e9 d3 12 00 00       	jmpq   403d5f <__ctype_b_loc@plt+0x1d3f>
  402a8c:	49 8b 73 f0          	mov    -0x10(%r11),%rsi
  402a90:	89 54 24 1c          	mov    %edx,0x1c(%rsp)
  402a94:	49 8b 13             	mov    (%r11),%rdx
  402a97:	4c 89 4c 24 20       	mov    %r9,0x20(%rsp)
  402a9c:	44 8b 0d 1d 68 22 00 	mov    0x22681d(%rip),%r9d        # 6292c0 <_fini@@Base+0x20d09c>
  402aa3:	8b 05 1b 68 22 00    	mov    0x22681b(%rip),%eax        # 6292c4 <_fini@@Base+0x20d0a0>
  402aa9:	89 04 24             	mov    %eax,(%rsp)
  402aac:	89 7c 24 18          	mov    %edi,0x18(%rsp)
  402ab0:	bf 11 00 00 00       	mov    $0x11,%edi
  402ab5:	31 c9                	xor    %ecx,%ecx
  402ab7:	0f 57 c0             	xorps  %xmm0,%xmm0
  402aba:	44 89 44 24 14       	mov    %r8d,0x14(%rsp)
  402abf:	41 b8 a1 09 42 00    	mov    $0x4209a1,%r8d
  402ac5:	e9 c0 13 00 00       	jmpq   403e8a <__ctype_b_loc@plt+0x1e6a>
  402aca:	49 8b 03             	mov    (%r11),%rax
  402acd:	e9 df 13 00 00       	jmpq   403eb1 <__ctype_b_loc@plt+0x1e91>
  402ad2:	49 8b 33             	mov    (%r11),%rsi
  402ad5:	4c 89 4c 24 20       	mov    %r9,0x20(%rsp)
  402ada:	44 8b 0d df 67 22 00 	mov    0x2267df(%rip),%r9d        # 6292c0 <_fini@@Base+0x20d09c>
  402ae1:	8b 05 dd 67 22 00    	mov    0x2267dd(%rip),%eax        # 6292c4 <_fini@@Base+0x20d0a0>
  402ae7:	89 04 24             	mov    %eax,(%rsp)
  402aea:	89 7c 24 18          	mov    %edi,0x18(%rsp)
  402aee:	bf 30 00 00 00       	mov    $0x30,%edi
  402af3:	e9 ee 11 00 00       	jmpq   403ce6 <__ctype_b_loc@plt+0x1cc6>
  402af8:	89 54 24 1c          	mov    %edx,0x1c(%rsp)
  402afc:	49 8b 53 f0          	mov    -0x10(%r11),%rdx
  402b00:	49 8b 33             	mov    (%r11),%rsi
  402b03:	4c 89 4c 24 20       	mov    %r9,0x20(%rsp)
  402b08:	44 8b 0d b1 67 22 00 	mov    0x2267b1(%rip),%r9d        # 6292c0 <_fini@@Base+0x20d09c>
  402b0f:	8b 05 af 67 22 00    	mov    0x2267af(%rip),%eax        # 6292c4 <_fini@@Base+0x20d0a0>
  402b15:	89 04 24             	mov    %eax,(%rsp)
  402b18:	89 7c 24 18          	mov    %edi,0x18(%rsp)
  402b1c:	bf 30 00 00 00       	mov    $0x30,%edi
  402b21:	e9 57 13 00 00       	jmpq   403e7d <__ctype_b_loc@plt+0x1e5d>
  402b26:	49 8b 73 f8          	mov    -0x8(%r11),%rsi
  402b2a:	89 54 24 1c          	mov    %edx,0x1c(%rsp)
  402b2e:	49 8b 13             	mov    (%r11),%rdx
  402b31:	4c 89 4c 24 20       	mov    %r9,0x20(%rsp)
  402b36:	44 8b 0d 83 67 22 00 	mov    0x226783(%rip),%r9d        # 6292c0 <_fini@@Base+0x20d09c>
  402b3d:	8b 05 81 67 22 00    	mov    0x226781(%rip),%eax        # 6292c4 <_fini@@Base+0x20d0a0>
  402b43:	89 04 24             	mov    %eax,(%rsp)
  402b46:	89 7c 24 18          	mov    %edi,0x18(%rsp)
  402b4a:	bf 2f 00 00 00       	mov    $0x2f,%edi
  402b4f:	e9 29 13 00 00       	jmpq   403e7d <__ctype_b_loc@plt+0x1e5d>
  402b54:	49 8b 33             	mov    (%r11),%rsi
  402b57:	4c 89 4c 24 20       	mov    %r9,0x20(%rsp)
  402b5c:	44 8b 0d 5d 67 22 00 	mov    0x22675d(%rip),%r9d        # 6292c0 <_fini@@Base+0x20d09c>
  402b63:	8b 05 5b 67 22 00    	mov    0x22675b(%rip),%eax        # 6292c4 <_fini@@Base+0x20d0a0>
  402b69:	89 04 24             	mov    %eax,(%rsp)
  402b6c:	89 7c 24 18          	mov    %edi,0x18(%rsp)
  402b70:	bf 2f 00 00 00       	mov    $0x2f,%edi
  402b75:	e9 6c 11 00 00       	jmpq   403ce6 <__ctype_b_loc@plt+0x1cc6>
  402b7a:	49 8b 03             	mov    (%r11),%rax
  402b7d:	e9 2f 13 00 00       	jmpq   403eb1 <__ctype_b_loc@plt+0x1e91>
  402b82:	49 8b 73 e0          	mov    -0x20(%r11),%rsi
  402b86:	89 54 24 1c          	mov    %edx,0x1c(%rsp)
  402b8a:	49 8b 53 f0          	mov    -0x10(%r11),%rdx
  402b8e:	49 8b 0b             	mov    (%r11),%rcx
  402b91:	4c 89 4c 24 20       	mov    %r9,0x20(%rsp)
  402b96:	44 8b 0d 23 67 22 00 	mov    0x226723(%rip),%r9d        # 6292c0 <_fini@@Base+0x20d09c>
  402b9d:	8b 05 21 67 22 00    	mov    0x226721(%rip),%eax        # 6292c4 <_fini@@Base+0x20d0a0>
  402ba3:	89 04 24             	mov    %eax,(%rsp)
  402ba6:	89 7c 24 18          	mov    %edi,0x18(%rsp)
  402baa:	bf 16 00 00 00       	mov    $0x16,%edi
  402baf:	e9 cb 12 00 00       	jmpq   403e7f <__ctype_b_loc@plt+0x1e5f>
  402bb4:	49 8b 73 d0          	mov    -0x30(%r11),%rsi
  402bb8:	89 54 24 1c          	mov    %edx,0x1c(%rsp)
  402bbc:	49 8b 53 e0          	mov    -0x20(%r11),%rdx
  402bc0:	49 8b 4b f0          	mov    -0x10(%r11),%rcx
  402bc4:	4c 89 4c 24 20       	mov    %r9,0x20(%rsp)
  402bc9:	44 8b 0d f0 66 22 00 	mov    0x2266f0(%rip),%r9d        # 6292c0 <_fini@@Base+0x20d09c>
  402bd0:	8b 05 ee 66 22 00    	mov    0x2266ee(%rip),%eax        # 6292c4 <_fini@@Base+0x20d0a0>
  402bd6:	89 04 24             	mov    %eax,(%rsp)
  402bd9:	89 7c 24 18          	mov    %edi,0x18(%rsp)
  402bdd:	bf 12 00 00 00       	mov    $0x12,%edi
  402be2:	e9 9a 09 00 00       	jmpq   403581 <__ctype_b_loc@plt+0x1561>
  402be7:	49 8b 73 d8          	mov    -0x28(%r11),%rsi
  402beb:	89 54 24 1c          	mov    %edx,0x1c(%rsp)
  402bef:	49 8b 53 e8          	mov    -0x18(%r11),%rdx
  402bf3:	4c 89 4c 24 20       	mov    %r9,0x20(%rsp)
  402bf8:	44 8b 0d c1 66 22 00 	mov    0x2266c1(%rip),%r9d        # 6292c0 <_fini@@Base+0x20d09c>
  402bff:	8b 05 bf 66 22 00    	mov    0x2266bf(%rip),%eax        # 6292c4 <_fini@@Base+0x20d0a0>
  402c05:	89 04 24             	mov    %eax,(%rsp)
  402c08:	89 7c 24 18          	mov    %edi,0x18(%rsp)
  402c0c:	bf 12 00 00 00       	mov    $0x12,%edi
  402c11:	e9 69 09 00 00       	jmpq   40357f <__ctype_b_loc@plt+0x155f>
  402c16:	49 8b 73 d8          	mov    -0x28(%r11),%rsi
  402c1a:	49 8b 4b f0          	mov    -0x10(%r11),%rcx
  402c1e:	4c 89 4c 24 20       	mov    %r9,0x20(%rsp)
  402c23:	44 8b 0d 96 66 22 00 	mov    0x226696(%rip),%r9d        # 6292c0 <_fini@@Base+0x20d09c>
  402c2a:	8b 05 94 66 22 00    	mov    0x226694(%rip),%eax        # 6292c4 <_fini@@Base+0x20d0a0>
  402c30:	89 04 24             	mov    %eax,(%rsp)
  402c33:	89 7c 24 18          	mov    %edi,0x18(%rsp)
  402c37:	bf 12 00 00 00       	mov    $0x12,%edi
  402c3c:	89 54 24 1c          	mov    %edx,0x1c(%rsp)
  402c40:	ba 00 00 00 00       	mov    $0x0,%edx
  402c45:	e9 37 09 00 00       	jmpq   403581 <__ctype_b_loc@plt+0x1561>
  402c4a:	49 8b 73 e0          	mov    -0x20(%r11),%rsi
  402c4e:	4c 89 4c 24 20       	mov    %r9,0x20(%rsp)
  402c53:	44 8b 0d 66 66 22 00 	mov    0x226666(%rip),%r9d        # 6292c0 <_fini@@Base+0x20d09c>
  402c5a:	8b 05 64 66 22 00    	mov    0x226664(%rip),%eax        # 6292c4 <_fini@@Base+0x20d0a0>
  402c60:	89 04 24             	mov    %eax,(%rsp)
  402c63:	89 7c 24 18          	mov    %edi,0x18(%rsp)
  402c67:	bf 12 00 00 00       	mov    $0x12,%edi
  402c6c:	89 54 24 1c          	mov    %edx,0x1c(%rsp)
  402c70:	ba 00 00 00 00       	mov    $0x0,%edx
  402c75:	e9 05 09 00 00       	jmpq   40357f <__ctype_b_loc@plt+0x155f>
  402c7a:	4c 89 4c 24 20       	mov    %r9,0x20(%rsp)
  402c7f:	44 8b 0d 3a 66 22 00 	mov    0x22663a(%rip),%r9d        # 6292c0 <_fini@@Base+0x20d09c>
  402c86:	8b 05 38 66 22 00    	mov    0x226638(%rip),%eax        # 6292c4 <_fini@@Base+0x20d0a0>
  402c8c:	89 04 24             	mov    %eax,(%rsp)
  402c8f:	89 7c 24 18          	mov    %edi,0x18(%rsp)
  402c93:	bf 01 00 00 00       	mov    $0x1,%edi
  402c98:	31 f6                	xor    %esi,%esi
  402c9a:	e9 d8 11 00 00       	jmpq   403e77 <__ctype_b_loc@plt+0x1e57>
  402c9f:	4c 89 4c 24 20       	mov    %r9,0x20(%rsp)
  402ca4:	44 8b 0d 15 66 22 00 	mov    0x226615(%rip),%r9d        # 6292c0 <_fini@@Base+0x20d09c>
  402cab:	8b 05 13 66 22 00    	mov    0x226613(%rip),%eax        # 6292c4 <_fini@@Base+0x20d0a0>
  402cb1:	89 04 24             	mov    %eax,(%rsp)
  402cb4:	89 7c 24 18          	mov    %edi,0x18(%rsp)
  402cb8:	bf 0e 00 00 00       	mov    $0xe,%edi
  402cbd:	31 f6                	xor    %esi,%esi
  402cbf:	e9 b3 11 00 00       	jmpq   403e77 <__ctype_b_loc@plt+0x1e57>
  402cc4:	49 8b 33             	mov    (%r11),%rsi
  402cc7:	4c 89 4c 24 20       	mov    %r9,0x20(%rsp)
  402ccc:	44 8b 0d ed 65 22 00 	mov    0x2265ed(%rip),%r9d        # 6292c0 <_fini@@Base+0x20d09c>
  402cd3:	8b 05 eb 65 22 00    	mov    0x2265eb(%rip),%eax        # 6292c4 <_fini@@Base+0x20d0a0>
  402cd9:	89 04 24             	mov    %eax,(%rsp)
  402cdc:	89 7c 24 18          	mov    %edi,0x18(%rsp)
  402ce0:	bf 0f 00 00 00       	mov    $0xf,%edi
  402ce5:	e9 fc 0f 00 00       	jmpq   403ce6 <__ctype_b_loc@plt+0x1cc6>
  402cea:	4c 89 4c 24 20       	mov    %r9,0x20(%rsp)
  402cef:	44 8b 0d ca 65 22 00 	mov    0x2265ca(%rip),%r9d        # 6292c0 <_fini@@Base+0x20d09c>
  402cf6:	8b 05 c8 65 22 00    	mov    0x2265c8(%rip),%eax        # 6292c4 <_fini@@Base+0x20d0a0>
  402cfc:	89 04 24             	mov    %eax,(%rsp)
  402cff:	89 7c 24 18          	mov    %edi,0x18(%rsp)
  402d03:	bf 29 00 00 00       	mov    $0x29,%edi
  402d08:	31 f6                	xor    %esi,%esi
  402d0a:	e9 68 11 00 00       	jmpq   403e77 <__ctype_b_loc@plt+0x1e57>
  402d0f:	49 8b 73 f0          	mov    -0x10(%r11),%rsi
  402d13:	89 54 24 1c          	mov    %edx,0x1c(%rsp)
  402d17:	49 8b 13             	mov    (%r11),%rdx
  402d1a:	4c 89 4c 24 20       	mov    %r9,0x20(%rsp)
  402d1f:	44 8b 0d 9a 65 22 00 	mov    0x22659a(%rip),%r9d        # 6292c0 <_fini@@Base+0x20d09c>
  402d26:	8b 05 98 65 22 00    	mov    0x226598(%rip),%eax        # 6292c4 <_fini@@Base+0x20d0a0>
  402d2c:	89 04 24             	mov    %eax,(%rsp)
  402d2f:	89 7c 24 18          	mov    %edi,0x18(%rsp)
  402d33:	bf 11 00 00 00       	mov    $0x11,%edi
  402d38:	31 c9                	xor    %ecx,%ecx
  402d3a:	0f 57 c0             	xorps  %xmm0,%xmm0
  402d3d:	44 89 44 24 14       	mov    %r8d,0x14(%rsp)
  402d42:	41 b8 be 09 42 00    	mov    $0x4209be,%r8d
  402d48:	e9 3d 11 00 00       	jmpq   403e8a <__ctype_b_loc@plt+0x1e6a>
  402d4d:	49 8b 73 f0          	mov    -0x10(%r11),%rsi
  402d51:	89 54 24 1c          	mov    %edx,0x1c(%rsp)
  402d55:	49 8b 13             	mov    (%r11),%rdx
  402d58:	4c 89 4c 24 20       	mov    %r9,0x20(%rsp)
  402d5d:	44 8b 0d 5c 65 22 00 	mov    0x22655c(%rip),%r9d        # 6292c0 <_fini@@Base+0x20d09c>
  402d64:	8b 05 5a 65 22 00    	mov    0x22655a(%rip),%eax        # 6292c4 <_fini@@Base+0x20d0a0>
  402d6a:	89 04 24             	mov    %eax,(%rsp)
  402d6d:	89 7c 24 18          	mov    %edi,0x18(%rsp)
  402d71:	bf 11 00 00 00       	mov    $0x11,%edi
  402d76:	31 c9                	xor    %ecx,%ecx
  402d78:	0f 57 c0             	xorps  %xmm0,%xmm0
  402d7b:	44 89 44 24 14       	mov    %r8d,0x14(%rsp)
  402d80:	41 b8 c2 09 42 00    	mov    $0x4209c2,%r8d
  402d86:	e9 ff 10 00 00       	jmpq   403e8a <__ctype_b_loc@plt+0x1e6a>
  402d8b:	49 8b 73 f0          	mov    -0x10(%r11),%rsi
  402d8f:	89 54 24 1c          	mov    %edx,0x1c(%rsp)
  402d93:	49 8b 13             	mov    (%r11),%rdx
  402d96:	4c 89 4c 24 20       	mov    %r9,0x20(%rsp)
  402d9b:	44 8b 0d 1e 65 22 00 	mov    0x22651e(%rip),%r9d        # 6292c0 <_fini@@Base+0x20d09c>
  402da2:	8b 05 1c 65 22 00    	mov    0x22651c(%rip),%eax        # 6292c4 <_fini@@Base+0x20d0a0>
  402da8:	89 04 24             	mov    %eax,(%rsp)
  402dab:	89 7c 24 18          	mov    %edi,0x18(%rsp)
  402daf:	bf 11 00 00 00       	mov    $0x11,%edi
  402db4:	31 c9                	xor    %ecx,%ecx
  402db6:	0f 57 c0             	xorps  %xmm0,%xmm0
  402db9:	44 89 44 24 14       	mov    %r8d,0x14(%rsp)
  402dbe:	41 b8 c1 09 42 00    	mov    $0x4209c1,%r8d
  402dc4:	e9 c1 10 00 00       	jmpq   403e8a <__ctype_b_loc@plt+0x1e6a>
  402dc9:	49 8b 73 f0          	mov    -0x10(%r11),%rsi
  402dcd:	89 54 24 1c          	mov    %edx,0x1c(%rsp)
  402dd1:	49 8b 13             	mov    (%r11),%rdx
  402dd4:	4c 89 4c 24 20       	mov    %r9,0x20(%rsp)
  402dd9:	44 8b 0d e0 64 22 00 	mov    0x2264e0(%rip),%r9d        # 6292c0 <_fini@@Base+0x20d09c>
  402de0:	8b 05 de 64 22 00    	mov    0x2264de(%rip),%eax        # 6292c4 <_fini@@Base+0x20d0a0>
  402de6:	89 04 24             	mov    %eax,(%rsp)
  402de9:	89 7c 24 18          	mov    %edi,0x18(%rsp)
  402ded:	bf 11 00 00 00       	mov    $0x11,%edi
  402df2:	e9 1b 02 00 00       	jmpq   403012 <__ctype_b_loc@plt+0xff2>
  402df7:	49 8b 73 f0          	mov    -0x10(%r11),%rsi
  402dfb:	89 54 24 1c          	mov    %edx,0x1c(%rsp)
  402dff:	49 8b 13             	mov    (%r11),%rdx
  402e02:	4c 89 4c 24 20       	mov    %r9,0x20(%rsp)
  402e07:	44 8b 0d b2 64 22 00 	mov    0x2264b2(%rip),%r9d        # 6292c0 <_fini@@Base+0x20d09c>
  402e0e:	8b 05 b0 64 22 00    	mov    0x2264b0(%rip),%eax        # 6292c4 <_fini@@Base+0x20d0a0>
  402e14:	89 04 24             	mov    %eax,(%rsp)
  402e17:	89 7c 24 18          	mov    %edi,0x18(%rsp)
  402e1b:	bf 11 00 00 00       	mov    $0x11,%edi
  402e20:	e9 2c 02 00 00       	jmpq   403051 <__ctype_b_loc@plt+0x1031>
  402e25:	49 8b 73 f0          	mov    -0x10(%r11),%rsi
  402e29:	89 54 24 1c          	mov    %edx,0x1c(%rsp)
  402e2d:	49 8b 13             	mov    (%r11),%rdx
  402e30:	4c 89 4c 24 20       	mov    %r9,0x20(%rsp)
  402e35:	44 8b 0d 84 64 22 00 	mov    0x226484(%rip),%r9d        # 6292c0 <_fini@@Base+0x20d09c>
  402e3c:	8b 05 82 64 22 00    	mov    0x226482(%rip),%eax        # 6292c4 <_fini@@Base+0x20d0a0>
  402e42:	89 04 24             	mov    %eax,(%rsp)
  402e45:	89 7c 24 18          	mov    %edi,0x18(%rsp)
  402e49:	bf 11 00 00 00       	mov    $0x11,%edi
  402e4e:	31 c9                	xor    %ecx,%ecx
  402e50:	0f 57 c0             	xorps  %xmm0,%xmm0
  402e53:	44 89 44 24 14       	mov    %r8d,0x14(%rsp)
  402e58:	41 b8 c5 09 42 00    	mov    $0x4209c5,%r8d
  402e5e:	e9 27 10 00 00       	jmpq   403e8a <__ctype_b_loc@plt+0x1e6a>
  402e63:	49 8b 73 f0          	mov    -0x10(%r11),%rsi
  402e67:	89 54 24 1c          	mov    %edx,0x1c(%rsp)
  402e6b:	49 8b 13             	mov    (%r11),%rdx
  402e6e:	4c 89 4c 24 20       	mov    %r9,0x20(%rsp)
  402e73:	44 8b 0d 46 64 22 00 	mov    0x226446(%rip),%r9d        # 6292c0 <_fini@@Base+0x20d09c>
  402e7a:	8b 05 44 64 22 00    	mov    0x226444(%rip),%eax        # 6292c4 <_fini@@Base+0x20d0a0>
  402e80:	89 04 24             	mov    %eax,(%rsp)
  402e83:	89 7c 24 18          	mov    %edi,0x18(%rsp)
  402e87:	bf 11 00 00 00       	mov    $0x11,%edi
  402e8c:	31 c9                	xor    %ecx,%ecx
  402e8e:	0f 57 c0             	xorps  %xmm0,%xmm0
  402e91:	44 89 44 24 14       	mov    %r8d,0x14(%rsp)
  402e96:	41 b8 c7 09 42 00    	mov    $0x4209c7,%r8d
  402e9c:	e9 e9 0f 00 00       	jmpq   403e8a <__ctype_b_loc@plt+0x1e6a>
  402ea1:	49 8b 73 f0          	mov    -0x10(%r11),%rsi
  402ea5:	89 54 24 1c          	mov    %edx,0x1c(%rsp)
  402ea9:	49 8b 13             	mov    (%r11),%rdx
  402eac:	4c 89 4c 24 20       	mov    %r9,0x20(%rsp)
  402eb1:	44 8b 0d 08 64 22 00 	mov    0x226408(%rip),%r9d        # 6292c0 <_fini@@Base+0x20d09c>
  402eb8:	8b 05 06 64 22 00    	mov    0x226406(%rip),%eax        # 6292c4 <_fini@@Base+0x20d0a0>
  402ebe:	89 04 24             	mov    %eax,(%rsp)
  402ec1:	89 7c 24 18          	mov    %edi,0x18(%rsp)
  402ec5:	bf 11 00 00 00       	mov    $0x11,%edi
  402eca:	31 c9                	xor    %ecx,%ecx
  402ecc:	0f 57 c0             	xorps  %xmm0,%xmm0
  402ecf:	44 89 44 24 14       	mov    %r8d,0x14(%rsp)
  402ed4:	41 b8 c9 09 42 00    	mov    $0x4209c9,%r8d
  402eda:	e9 ab 0f 00 00       	jmpq   403e8a <__ctype_b_loc@plt+0x1e6a>
  402edf:	49 8b 33             	mov    (%r11),%rsi
  402ee2:	4c 89 4c 24 20       	mov    %r9,0x20(%rsp)
  402ee7:	44 8b 0d d2 63 22 00 	mov    0x2263d2(%rip),%r9d        # 6292c0 <_fini@@Base+0x20d09c>
  402eee:	8b 05 d0 63 22 00    	mov    0x2263d0(%rip),%eax        # 6292c4 <_fini@@Base+0x20d0a0>
  402ef4:	89 04 24             	mov    %eax,(%rsp)
  402ef7:	89 7c 24 18          	mov    %edi,0x18(%rsp)
  402efb:	bf 2d 00 00 00       	mov    $0x2d,%edi
  402f00:	89 54 24 1c          	mov    %edx,0x1c(%rsp)
  402f04:	ba 00 00 00 00       	mov    $0x0,%edx
  402f09:	31 c9                	xor    %ecx,%ecx
  402f0b:	0f 57 c0             	xorps  %xmm0,%xmm0
  402f0e:	44 89 44 24 14       	mov    %r8d,0x14(%rsp)
  402f13:	41 b8 cb 09 42 00    	mov    $0x4209cb,%r8d
  402f19:	e9 6c 0f 00 00       	jmpq   403e8a <__ctype_b_loc@plt+0x1e6a>
  402f1e:	49 8b 33             	mov    (%r11),%rsi
  402f21:	4c 89 4c 24 20       	mov    %r9,0x20(%rsp)
  402f26:	44 8b 0d 93 63 22 00 	mov    0x226393(%rip),%r9d        # 6292c0 <_fini@@Base+0x20d09c>
  402f2d:	8b 05 91 63 22 00    	mov    0x226391(%rip),%eax        # 6292c4 <_fini@@Base+0x20d0a0>
  402f33:	89 04 24             	mov    %eax,(%rsp)
  402f36:	89 7c 24 18          	mov    %edi,0x18(%rsp)
  402f3a:	bf 2d 00 00 00       	mov    $0x2d,%edi
  402f3f:	89 54 24 1c          	mov    %edx,0x1c(%rsp)
  402f43:	ba 00 00 00 00       	mov    $0x0,%edx
  402f48:	31 c9                	xor    %ecx,%ecx
  402f4a:	0f 57 c0             	xorps  %xmm0,%xmm0
  402f4d:	44 89 44 24 14       	mov    %r8d,0x14(%rsp)
  402f52:	41 b8 d2 09 42 00    	mov    $0x4209d2,%r8d
  402f58:	e9 2d 0f 00 00       	jmpq   403e8a <__ctype_b_loc@plt+0x1e6a>
  402f5d:	49 8b 33             	mov    (%r11),%rsi
  402f60:	4c 89 4c 24 20       	mov    %r9,0x20(%rsp)
  402f65:	44 8b 0d 54 63 22 00 	mov    0x226354(%rip),%r9d        # 6292c0 <_fini@@Base+0x20d09c>
  402f6c:	8b 05 52 63 22 00    	mov    0x226352(%rip),%eax        # 6292c4 <_fini@@Base+0x20d0a0>
  402f72:	89 04 24             	mov    %eax,(%rsp)
  402f75:	89 7c 24 18          	mov    %edi,0x18(%rsp)
  402f79:	bf 2d 00 00 00       	mov    $0x2d,%edi
  402f7e:	89 54 24 1c          	mov    %edx,0x1c(%rsp)
  402f82:	ba 00 00 00 00       	mov    $0x0,%edx
  402f87:	31 c9                	xor    %ecx,%ecx
  402f89:	0f 57 c0             	xorps  %xmm0,%xmm0
  402f8c:	44 89 44 24 14       	mov    %r8d,0x14(%rsp)
  402f91:	41 b8 d7 09 42 00    	mov    $0x4209d7,%r8d
  402f97:	e9 ee 0e 00 00       	jmpq   403e8a <__ctype_b_loc@plt+0x1e6a>
  402f9c:	49 8b 33             	mov    (%r11),%rsi
  402f9f:	4c 89 4c 24 20       	mov    %r9,0x20(%rsp)
  402fa4:	44 8b 0d 15 63 22 00 	mov    0x226315(%rip),%r9d        # 6292c0 <_fini@@Base+0x20d09c>
  402fab:	8b 05 13 63 22 00    	mov    0x226313(%rip),%eax        # 6292c4 <_fini@@Base+0x20d0a0>
  402fb1:	89 04 24             	mov    %eax,(%rsp)
  402fb4:	89 7c 24 18          	mov    %edi,0x18(%rsp)
  402fb8:	bf 2d 00 00 00       	mov    $0x2d,%edi
  402fbd:	e9 44 01 00 00       	jmpq   403106 <__ctype_b_loc@plt+0x10e6>
  402fc2:	49 8b 33             	mov    (%r11),%rsi
  402fc5:	4c 89 4c 24 20       	mov    %r9,0x20(%rsp)
  402fca:	44 8b 0d ef 62 22 00 	mov    0x2262ef(%rip),%r9d        # 6292c0 <_fini@@Base+0x20d09c>
  402fd1:	8b 05 ed 62 22 00    	mov    0x2262ed(%rip),%eax        # 6292c4 <_fini@@Base+0x20d0a0>
  402fd7:	89 04 24             	mov    %eax,(%rsp)
  402fda:	89 7c 24 18          	mov    %edi,0x18(%rsp)
  402fde:	bf 2d 00 00 00       	mov    $0x2d,%edi
  402fe3:	e9 5e 01 00 00       	jmpq   403146 <__ctype_b_loc@plt+0x1126>
  402fe8:	49 8b 33             	mov    (%r11),%rsi
  402feb:	4c 89 4c 24 20       	mov    %r9,0x20(%rsp)
  402ff0:	44 8b 0d c9 62 22 00 	mov    0x2262c9(%rip),%r9d        # 6292c0 <_fini@@Base+0x20d09c>
  402ff7:	8b 05 c7 62 22 00    	mov    0x2262c7(%rip),%eax        # 6292c4 <_fini@@Base+0x20d0a0>
  402ffd:	89 04 24             	mov    %eax,(%rsp)
  403000:	89 7c 24 18          	mov    %edi,0x18(%rsp)
  403004:	bf 2d 00 00 00       	mov    $0x2d,%edi
  403009:	89 54 24 1c          	mov    %edx,0x1c(%rsp)
  40300d:	ba 00 00 00 00       	mov    $0x0,%edx
  403012:	31 c9                	xor    %ecx,%ecx
  403014:	0f 57 c0             	xorps  %xmm0,%xmm0
  403017:	44 89 44 24 14       	mov    %r8d,0x14(%rsp)
  40301c:	41 b8 df 09 42 00    	mov    $0x4209df,%r8d
  403022:	e9 63 0e 00 00       	jmpq   403e8a <__ctype_b_loc@plt+0x1e6a>
  403027:	49 8b 33             	mov    (%r11),%rsi
  40302a:	4c 89 4c 24 20       	mov    %r9,0x20(%rsp)
  40302f:	44 8b 0d 8a 62 22 00 	mov    0x22628a(%rip),%r9d        # 6292c0 <_fini@@Base+0x20d09c>
  403036:	8b 05 88 62 22 00    	mov    0x226288(%rip),%eax        # 6292c4 <_fini@@Base+0x20d0a0>
  40303c:	89 04 24             	mov    %eax,(%rsp)
  40303f:	89 7c 24 18          	mov    %edi,0x18(%rsp)
  403043:	bf 2d 00 00 00       	mov    $0x2d,%edi
  403048:	89 54 24 1c          	mov    %edx,0x1c(%rsp)
  40304c:	ba 00 00 00 00       	mov    $0x0,%edx
  403051:	31 c9                	xor    %ecx,%ecx
  403053:	0f 57 c0             	xorps  %xmm0,%xmm0
  403056:	44 89 44 24 14       	mov    %r8d,0x14(%rsp)
  40305b:	41 b8 e2 09 42 00    	mov    $0x4209e2,%r8d
  403061:	e9 24 0e 00 00       	jmpq   403e8a <__ctype_b_loc@plt+0x1e6a>
  403066:	49 8b 33             	mov    (%r11),%rsi
  403069:	4c 89 4c 24 20       	mov    %r9,0x20(%rsp)
  40306e:	44 8b 0d 4b 62 22 00 	mov    0x22624b(%rip),%r9d        # 6292c0 <_fini@@Base+0x20d09c>
  403075:	8b 05 49 62 22 00    	mov    0x226249(%rip),%eax        # 6292c4 <_fini@@Base+0x20d0a0>
  40307b:	89 04 24             	mov    %eax,(%rsp)
  40307e:	89 7c 24 18          	mov    %edi,0x18(%rsp)
  403082:	bf 2d 00 00 00       	mov    $0x2d,%edi
  403087:	89 54 24 1c          	mov    %edx,0x1c(%rsp)
  40308b:	ba 00 00 00 00       	mov    $0x0,%edx
  403090:	31 c9                	xor    %ecx,%ecx
  403092:	0f 57 c0             	xorps  %xmm0,%xmm0
  403095:	44 89 44 24 14       	mov    %r8d,0x14(%rsp)
  40309a:	41 b8 e4 09 42 00    	mov    $0x4209e4,%r8d
  4030a0:	e9 e5 0d 00 00       	jmpq   403e8a <__ctype_b_loc@plt+0x1e6a>
  4030a5:	49 8b 33             	mov    (%r11),%rsi
  4030a8:	4c 89 4c 24 20       	mov    %r9,0x20(%rsp)
  4030ad:	44 8b 0d 0c 62 22 00 	mov    0x22620c(%rip),%r9d        # 6292c0 <_fini@@Base+0x20d09c>
  4030b4:	8b 05 0a 62 22 00    	mov    0x22620a(%rip),%eax        # 6292c4 <_fini@@Base+0x20d0a0>
  4030ba:	89 04 24             	mov    %eax,(%rsp)
  4030bd:	89 7c 24 18          	mov    %edi,0x18(%rsp)
  4030c1:	bf 2d 00 00 00       	mov    $0x2d,%edi
  4030c6:	89 54 24 1c          	mov    %edx,0x1c(%rsp)
  4030ca:	ba 00 00 00 00       	mov    $0x0,%edx
  4030cf:	31 c9                	xor    %ecx,%ecx
  4030d1:	0f 57 c0             	xorps  %xmm0,%xmm0
  4030d4:	44 89 44 24 14       	mov    %r8d,0x14(%rsp)
  4030d9:	41 b8 e6 09 42 00    	mov    $0x4209e6,%r8d
  4030df:	e9 a6 0d 00 00       	jmpq   403e8a <__ctype_b_loc@plt+0x1e6a>
  4030e4:	49 8b 73 f8          	mov    -0x8(%r11),%rsi
  4030e8:	4c 89 4c 24 20       	mov    %r9,0x20(%rsp)
  4030ed:	44 8b 0d cc 61 22 00 	mov    0x2261cc(%rip),%r9d        # 6292c0 <_fini@@Base+0x20d09c>
  4030f4:	8b 05 ca 61 22 00    	mov    0x2261ca(%rip),%eax        # 6292c4 <_fini@@Base+0x20d0a0>
  4030fa:	89 04 24             	mov    %eax,(%rsp)
  4030fd:	89 7c 24 18          	mov    %edi,0x18(%rsp)
  403101:	bf 2c 00 00 00       	mov    $0x2c,%edi
  403106:	89 54 24 1c          	mov    %edx,0x1c(%rsp)
  40310a:	ba 00 00 00 00       	mov    $0x0,%edx
  40310f:	31 c9                	xor    %ecx,%ecx
  403111:	0f 57 c0             	xorps  %xmm0,%xmm0
  403114:	44 89 44 24 14       	mov    %r8d,0x14(%rsp)
  403119:	41 b8 de 09 42 00    	mov    $0x4209de,%r8d
  40311f:	e9 66 0d 00 00       	jmpq   403e8a <__ctype_b_loc@plt+0x1e6a>
  403124:	49 8b 73 f8          	mov    -0x8(%r11),%rsi
  403128:	4c 89 4c 24 20       	mov    %r9,0x20(%rsp)
  40312d:	44 8b 0d 8c 61 22 00 	mov    0x22618c(%rip),%r9d        # 6292c0 <_fini@@Base+0x20d09c>
  403134:	8b 05 8a 61 22 00    	mov    0x22618a(%rip),%eax        # 6292c4 <_fini@@Base+0x20d0a0>
  40313a:	89 04 24             	mov    %eax,(%rsp)
  40313d:	89 7c 24 18          	mov    %edi,0x18(%rsp)
  403141:	bf 2c 00 00 00       	mov    $0x2c,%edi
  403146:	89 54 24 1c          	mov    %edx,0x1c(%rsp)
  40314a:	ba 00 00 00 00       	mov    $0x0,%edx
  40314f:	31 c9                	xor    %ecx,%ecx
  403151:	0f 57 c0             	xorps  %xmm0,%xmm0
  403154:	44 89 44 24 14       	mov    %r8d,0x14(%rsp)
  403159:	41 b8 e1 09 42 00    	mov    $0x4209e1,%r8d
  40315f:	e9 26 0d 00 00       	jmpq   403e8a <__ctype_b_loc@plt+0x1e6a>
  403164:	49 8b 73 e8          	mov    -0x18(%r11),%rsi
  403168:	89 54 24 1c          	mov    %edx,0x1c(%rsp)
  40316c:	49 8b 53 f8          	mov    -0x8(%r11),%rdx
  403170:	eb 0b                	jmp    40317d <__ctype_b_loc@plt+0x115d>
  403172:	49 8b 73 f0          	mov    -0x10(%r11),%rsi
  403176:	89 54 24 1c          	mov    %edx,0x1c(%rsp)
  40317a:	49 8b 13             	mov    (%r11),%rdx
  40317d:	4c 89 4c 24 20       	mov    %r9,0x20(%rsp)
  403182:	44 8b 0d 37 61 22 00 	mov    0x226137(%rip),%r9d        # 6292c0 <_fini@@Base+0x20d09c>
  403189:	8b 05 35 61 22 00    	mov    0x226135(%rip),%eax        # 6292c4 <_fini@@Base+0x20d0a0>
  40318f:	89 04 24             	mov    %eax,(%rsp)
  403192:	89 7c 24 18          	mov    %edi,0x18(%rsp)
  403196:	bf 06 00 00 00       	mov    $0x6,%edi
  40319b:	e9 dd 0c 00 00       	jmpq   403e7d <__ctype_b_loc@plt+0x1e5d>
  4031a0:	49 8b 33             	mov    (%r11),%rsi
  4031a3:	4c 89 4c 24 20       	mov    %r9,0x20(%rsp)
  4031a8:	44 8b 0d 11 61 22 00 	mov    0x226111(%rip),%r9d        # 6292c0 <_fini@@Base+0x20d09c>
  4031af:	8b 05 0f 61 22 00    	mov    0x22610f(%rip),%eax        # 6292c4 <_fini@@Base+0x20d0a0>
  4031b5:	89 04 24             	mov    %eax,(%rsp)
  4031b8:	89 7c 24 18          	mov    %edi,0x18(%rsp)
  4031bc:	bf 1b 00 00 00       	mov    $0x1b,%edi
  4031c1:	e9 20 0b 00 00       	jmpq   403ce6 <__ctype_b_loc@plt+0x1cc6>
  4031c6:	49 8b 03             	mov    (%r11),%rax
  4031c9:	e9 e3 0c 00 00       	jmpq   403eb1 <__ctype_b_loc@plt+0x1e91>
  4031ce:	89 54 24 1c          	mov    %edx,0x1c(%rsp)
  4031d2:	49 8b 53 e8          	mov    -0x18(%r11),%rdx
  4031d6:	49 8b 73 f8          	mov    -0x8(%r11),%rsi
  4031da:	4c 89 4c 24 20       	mov    %r9,0x20(%rsp)
  4031df:	44 8b 0d da 60 22 00 	mov    0x2260da(%rip),%r9d        # 6292c0 <_fini@@Base+0x20d09c>
  4031e6:	8b 05 d8 60 22 00    	mov    0x2260d8(%rip),%eax        # 6292c4 <_fini@@Base+0x20d0a0>
  4031ec:	89 04 24             	mov    %eax,(%rsp)
  4031ef:	f2 0f 10 05 41 90 01 	movsd  0x19041(%rip),%xmm0        # 41c238 <_fini@@Base+0x14>
  4031f6:	00 
  4031f7:	89 7c 24 18          	mov    %edi,0x18(%rsp)
  4031fb:	bf 1a 00 00 00       	mov    $0x1a,%edi
  403200:	31 c9                	xor    %ecx,%ecx
  403202:	e9 7b 0c 00 00       	jmpq   403e82 <__ctype_b_loc@plt+0x1e62>
  403207:	89 54 24 1c          	mov    %edx,0x1c(%rsp)
  40320b:	49 8b 53 f0          	mov    -0x10(%r11),%rdx
  40320f:	49 8b 33             	mov    (%r11),%rsi
  403212:	4c 89 4c 24 20       	mov    %r9,0x20(%rsp)
  403217:	44 8b 0d a2 60 22 00 	mov    0x2260a2(%rip),%r9d        # 6292c0 <_fini@@Base+0x20d09c>
  40321e:	8b 05 a0 60 22 00    	mov    0x2260a0(%rip),%eax        # 6292c4 <_fini@@Base+0x20d0a0>
  403224:	89 04 24             	mov    %eax,(%rsp)
  403227:	89 7c 24 18          	mov    %edi,0x18(%rsp)
  40322b:	bf 1a 00 00 00       	mov    $0x1a,%edi
  403230:	e9 48 0c 00 00       	jmpq   403e7d <__ctype_b_loc@plt+0x1e5d>
  403235:	89 54 24 1c          	mov    %edx,0x1c(%rsp)
  403239:	49 8b 53 f8          	mov    -0x8(%r11),%rdx
  40323d:	49 8b 33             	mov    (%r11),%rsi
  403240:	4c 89 4c 24 20       	mov    %r9,0x20(%rsp)
  403245:	44 8b 0d 74 60 22 00 	mov    0x226074(%rip),%r9d        # 6292c0 <_fini@@Base+0x20d09c>
  40324c:	8b 05 72 60 22 00    	mov    0x226072(%rip),%eax        # 6292c4 <_fini@@Base+0x20d0a0>
  403252:	89 04 24             	mov    %eax,(%rsp)
  403255:	89 7c 24 18          	mov    %edi,0x18(%rsp)
  403259:	bf 1a 00 00 00       	mov    $0x1a,%edi
  40325e:	31 c9                	xor    %ecx,%ecx
  403260:	0f 57 c0             	xorps  %xmm0,%xmm0
  403263:	44 89 44 24 14       	mov    %r8d,0x14(%rsp)
  403268:	45 31 c0             	xor    %r8d,%r8d
  40326b:	4d 89 d4             	mov    %r10,%r12
  40326e:	4c 89 5c 24 28       	mov    %r11,0x28(%rsp)
  403273:	e8 d8 72 00 00       	callq  40a550 <__ctype_b_loc@plt+0x8530>
  403278:	44 8b 0d 41 60 22 00 	mov    0x226041(%rip),%r9d        # 6292c0 <_fini@@Base+0x20d09c>
  40327f:	8b 0d 3f 60 22 00    	mov    0x22603f(%rip),%ecx        # 6292c4 <_fini@@Base+0x20d0a0>
  403285:	89 0c 24             	mov    %ecx,(%rsp)
  403288:	bf 1b 00 00 00       	mov    $0x1b,%edi
  40328d:	ba 00 00 00 00       	mov    $0x0,%edx
  403292:	31 c9                	xor    %ecx,%ecx
  403294:	0f 57 c0             	xorps  %xmm0,%xmm0
  403297:	45 31 c0             	xor    %r8d,%r8d
  40329a:	48 89 c6             	mov    %rax,%rsi
  40329d:	e9 f0 0b 00 00       	jmpq   403e92 <__ctype_b_loc@plt+0x1e72>
  4032a2:	49 8b 0b             	mov    (%r11),%rcx
  4032a5:	48 89 0d f4 61 22 00 	mov    %rcx,0x2261f4(%rip)        # 6294a0 <stderr@@GLIBC_2.2.5+0xe0>
  4032ac:	e9 00 0c 00 00       	jmpq   403eb1 <__ctype_b_loc@plt+0x1e91>
  4032b1:	49 8b 33             	mov    (%r11),%rsi
  4032b4:	4c 89 4c 24 20       	mov    %r9,0x20(%rsp)
  4032b9:	44 8b 0d 00 60 22 00 	mov    0x226000(%rip),%r9d        # 6292c0 <_fini@@Base+0x20d09c>
  4032c0:	8b 05 fe 5f 22 00    	mov    0x225ffe(%rip),%eax        # 6292c4 <_fini@@Base+0x20d0a0>
  4032c6:	89 04 24             	mov    %eax,(%rsp)
  4032c9:	89 7c 24 18          	mov    %edi,0x18(%rsp)
  4032cd:	bf 24 00 00 00       	mov    $0x24,%edi
  4032d2:	e9 0f 0a 00 00       	jmpq   403ce6 <__ctype_b_loc@plt+0x1cc6>
  4032d7:	89 54 24 1c          	mov    %edx,0x1c(%rsp)
  4032db:	49 8b 53 f8          	mov    -0x8(%r11),%rdx
  4032df:	49 8b 33             	mov    (%r11),%rsi
  4032e2:	4c 89 4c 24 20       	mov    %r9,0x20(%rsp)
  4032e7:	44 8b 0d d2 5f 22 00 	mov    0x225fd2(%rip),%r9d        # 6292c0 <_fini@@Base+0x20d09c>
  4032ee:	8b 05 d0 5f 22 00    	mov    0x225fd0(%rip),%eax        # 6292c4 <_fini@@Base+0x20d0a0>
  4032f4:	89 04 24             	mov    %eax,(%rsp)
  4032f7:	89 7c 24 18          	mov    %edi,0x18(%rsp)
  4032fb:	bf 24 00 00 00       	mov    $0x24,%edi
  403300:	e9 78 0b 00 00       	jmpq   403e7d <__ctype_b_loc@plt+0x1e5d>
  403305:	4c 89 4c 24 20       	mov    %r9,0x20(%rsp)
  40330a:	44 8b 0d af 5f 22 00 	mov    0x225faf(%rip),%r9d        # 6292c0 <_fini@@Base+0x20d09c>
  403311:	8b 05 ad 5f 22 00    	mov    0x225fad(%rip),%eax        # 6292c4 <_fini@@Base+0x20d0a0>
  403317:	89 04 24             	mov    %eax,(%rsp)
  40331a:	89 7c 24 18          	mov    %edi,0x18(%rsp)
  40331e:	bf 03 00 00 00       	mov    $0x3,%edi
  403323:	31 f6                	xor    %esi,%esi
  403325:	e9 4d 0b 00 00       	jmpq   403e77 <__ctype_b_loc@plt+0x1e57>
  40332a:	49 8b 73 f8          	mov    -0x8(%r11),%rsi
  40332e:	4c 89 4c 24 20       	mov    %r9,0x20(%rsp)
  403333:	44 8b 0d 86 5f 22 00 	mov    0x225f86(%rip),%r9d        # 6292c0 <_fini@@Base+0x20d09c>
  40333a:	8b 05 84 5f 22 00    	mov    0x225f84(%rip),%eax        # 6292c4 <_fini@@Base+0x20d0a0>
  403340:	89 04 24             	mov    %eax,(%rsp)
  403343:	89 7c 24 18          	mov    %edi,0x18(%rsp)
  403347:	bf 03 00 00 00       	mov    $0x3,%edi
  40334c:	e9 95 09 00 00       	jmpq   403ce6 <__ctype_b_loc@plt+0x1cc6>
  403351:	49 8b 33             	mov    (%r11),%rsi
  403354:	4c 89 4c 24 20       	mov    %r9,0x20(%rsp)
  403359:	44 8b 0d 60 5f 22 00 	mov    0x225f60(%rip),%r9d        # 6292c0 <_fini@@Base+0x20d09c>
  403360:	8b 05 5e 5f 22 00    	mov    0x225f5e(%rip),%eax        # 6292c4 <_fini@@Base+0x20d0a0>
  403366:	89 04 24             	mov    %eax,(%rsp)
  403369:	89 7c 24 18          	mov    %edi,0x18(%rsp)
  40336d:	bf 25 00 00 00       	mov    $0x25,%edi
  403372:	e9 6f 09 00 00       	jmpq   403ce6 <__ctype_b_loc@plt+0x1cc6>
  403377:	89 54 24 1c          	mov    %edx,0x1c(%rsp)
  40337b:	49 8b 53 f8          	mov    -0x8(%r11),%rdx
  40337f:	49 8b 33             	mov    (%r11),%rsi
  403382:	4c 89 4c 24 20       	mov    %r9,0x20(%rsp)
  403387:	44 8b 0d 32 5f 22 00 	mov    0x225f32(%rip),%r9d        # 6292c0 <_fini@@Base+0x20d09c>
  40338e:	8b 05 30 5f 22 00    	mov    0x225f30(%rip),%eax        # 6292c4 <_fini@@Base+0x20d0a0>
  403394:	89 04 24             	mov    %eax,(%rsp)
  403397:	89 7c 24 18          	mov    %edi,0x18(%rsp)
  40339b:	bf 25 00 00 00       	mov    $0x25,%edi
  4033a0:	e9 d8 0a 00 00       	jmpq   403e7d <__ctype_b_loc@plt+0x1e5d>
  4033a5:	49 8b 73 f8          	mov    -0x8(%r11),%rsi
  4033a9:	4c 89 4c 24 20       	mov    %r9,0x20(%rsp)
  4033ae:	44 8b 0d 0b 5f 22 00 	mov    0x225f0b(%rip),%r9d        # 6292c0 <_fini@@Base+0x20d09c>
  4033b5:	8b 05 09 5f 22 00    	mov    0x225f09(%rip),%eax        # 6292c4 <_fini@@Base+0x20d0a0>
  4033bb:	89 04 24             	mov    %eax,(%rsp)
  4033be:	89 7c 24 18          	mov    %edi,0x18(%rsp)
  4033c2:	bf 31 00 00 00       	mov    $0x31,%edi
  4033c7:	e9 1a 09 00 00       	jmpq   403ce6 <__ctype_b_loc@plt+0x1cc6>
  4033cc:	4c 89 4c 24 20       	mov    %r9,0x20(%rsp)
  4033d1:	44 8b 0d e8 5e 22 00 	mov    0x225ee8(%rip),%r9d        # 6292c0 <_fini@@Base+0x20d09c>
  4033d8:	8b 05 e6 5e 22 00    	mov    0x225ee6(%rip),%eax        # 6292c4 <_fini@@Base+0x20d0a0>
  4033de:	89 04 24             	mov    %eax,(%rsp)
  4033e1:	89 7c 24 18          	mov    %edi,0x18(%rsp)
  4033e5:	bf 10 00 00 00       	mov    $0x10,%edi
  4033ea:	31 f6                	xor    %esi,%esi
  4033ec:	e9 86 0a 00 00       	jmpq   403e77 <__ctype_b_loc@plt+0x1e57>
  4033f1:	49 8b 73 f8          	mov    -0x8(%r11),%rsi
  4033f5:	4c 89 4c 24 20       	mov    %r9,0x20(%rsp)
  4033fa:	44 8b 0d bf 5e 22 00 	mov    0x225ebf(%rip),%r9d        # 6292c0 <_fini@@Base+0x20d09c>
  403401:	8b 05 bd 5e 22 00    	mov    0x225ebd(%rip),%eax        # 6292c4 <_fini@@Base+0x20d0a0>
  403407:	89 04 24             	mov    %eax,(%rsp)
  40340a:	89 7c 24 18          	mov    %edi,0x18(%rsp)
  40340e:	bf 13 00 00 00       	mov    $0x13,%edi
  403413:	e9 ce 08 00 00       	jmpq   403ce6 <__ctype_b_loc@plt+0x1cc6>
  403418:	49 8b 73 e0          	mov    -0x20(%r11),%rsi
  40341c:	89 54 24 1c          	mov    %edx,0x1c(%rsp)
  403420:	49 8b 53 f0          	mov    -0x10(%r11),%rdx
  403424:	49 8b 0b             	mov    (%r11),%rcx
  403427:	4c 89 4c 24 20       	mov    %r9,0x20(%rsp)
  40342c:	44 8b 0d 8d 5e 22 00 	mov    0x225e8d(%rip),%r9d        # 6292c0 <_fini@@Base+0x20d09c>
  403433:	8b 05 8b 5e 22 00    	mov    0x225e8b(%rip),%eax        # 6292c4 <_fini@@Base+0x20d0a0>
  403439:	89 04 24             	mov    %eax,(%rsp)
  40343c:	89 7c 24 18          	mov    %edi,0x18(%rsp)
  403440:	bf 19 00 00 00       	mov    $0x19,%edi
  403445:	e9 35 0a 00 00       	jmpq   403e7f <__ctype_b_loc@plt+0x1e5f>
  40344a:	49 8b 73 f0          	mov    -0x10(%r11),%rsi
  40344e:	89 54 24 1c          	mov    %edx,0x1c(%rsp)
  403452:	49 8b 13             	mov    (%r11),%rdx
  403455:	4c 89 4c 24 20       	mov    %r9,0x20(%rsp)
  40345a:	44 8b 0d 5f 5e 22 00 	mov    0x225e5f(%rip),%r9d        # 6292c0 <_fini@@Base+0x20d09c>
  403461:	8b 05 5d 5e 22 00    	mov    0x225e5d(%rip),%eax        # 6292c4 <_fini@@Base+0x20d0a0>
  403467:	89 04 24             	mov    %eax,(%rsp)
  40346a:	89 7c 24 18          	mov    %edi,0x18(%rsp)
  40346e:	bf 19 00 00 00       	mov    $0x19,%edi
  403473:	e9 05 0a 00 00       	jmpq   403e7d <__ctype_b_loc@plt+0x1e5d>
  403478:	49 8b 73 d8          	mov    -0x28(%r11),%rsi
  40347c:	89 54 24 1c          	mov    %edx,0x1c(%rsp)
  403480:	49 8b 53 f0          	mov    -0x10(%r11),%rdx
  403484:	4c 89 4c 24 20       	mov    %r9,0x20(%rsp)
  403489:	44 8b 0d 30 5e 22 00 	mov    0x225e30(%rip),%r9d        # 6292c0 <_fini@@Base+0x20d09c>
  403490:	8b 05 2e 5e 22 00    	mov    0x225e2e(%rip),%eax        # 6292c4 <_fini@@Base+0x20d0a0>
  403496:	89 04 24             	mov    %eax,(%rsp)
  403499:	89 7c 24 18          	mov    %edi,0x18(%rsp)
  40349d:	bf 0d 00 00 00       	mov    $0xd,%edi
  4034a2:	e9 d6 09 00 00       	jmpq   403e7d <__ctype_b_loc@plt+0x1e5d>
  4034a7:	49 8b 73 f0          	mov    -0x10(%r11),%rsi
  4034ab:	89 54 24 1c          	mov    %edx,0x1c(%rsp)
  4034af:	49 8b 13             	mov    (%r11),%rdx
  4034b2:	4c 89 4c 24 20       	mov    %r9,0x20(%rsp)
  4034b7:	44 8b 0d 02 5e 22 00 	mov    0x225e02(%rip),%r9d        # 6292c0 <_fini@@Base+0x20d09c>
  4034be:	8b 05 00 5e 22 00    	mov    0x225e00(%rip),%eax        # 6292c4 <_fini@@Base+0x20d0a0>
  4034c4:	89 04 24             	mov    %eax,(%rsp)
  4034c7:	89 7c 24 18          	mov    %edi,0x18(%rsp)
  4034cb:	bf 33 00 00 00       	mov    $0x33,%edi
  4034d0:	e9 a8 09 00 00       	jmpq   403e7d <__ctype_b_loc@plt+0x1e5d>
  4034d5:	89 54 24 1c          	mov    %edx,0x1c(%rsp)
  4034d9:	49 8b 53 e0          	mov    -0x20(%r11),%rdx
  4034dd:	49 8b 4b f0          	mov    -0x10(%r11),%rcx
  4034e1:	4c 89 4c 24 20       	mov    %r9,0x20(%rsp)
  4034e6:	44 8b 0d d3 5d 22 00 	mov    0x225dd3(%rip),%r9d        # 6292c0 <_fini@@Base+0x20d09c>
  4034ed:	8b 05 d1 5d 22 00    	mov    0x225dd1(%rip),%eax        # 6292c4 <_fini@@Base+0x20d0a0>
  4034f3:	89 04 24             	mov    %eax,(%rsp)
  4034f6:	89 7c 24 18          	mov    %edi,0x18(%rsp)
  4034fa:	bf 12 00 00 00       	mov    $0x12,%edi
  4034ff:	31 f6                	xor    %esi,%esi
  403501:	eb 7e                	jmp    403581 <__ctype_b_loc@plt+0x1561>
  403503:	89 54 24 1c          	mov    %edx,0x1c(%rsp)
  403507:	49 8b 53 e8          	mov    -0x18(%r11),%rdx
  40350b:	4c 89 4c 24 20       	mov    %r9,0x20(%rsp)
  403510:	44 8b 0d a9 5d 22 00 	mov    0x225da9(%rip),%r9d        # 6292c0 <_fini@@Base+0x20d09c>
  403517:	8b 05 a7 5d 22 00    	mov    0x225da7(%rip),%eax        # 6292c4 <_fini@@Base+0x20d0a0>
  40351d:	89 04 24             	mov    %eax,(%rsp)
  403520:	89 7c 24 18          	mov    %edi,0x18(%rsp)
  403524:	bf 12 00 00 00       	mov    $0x12,%edi
  403529:	31 f6                	xor    %esi,%esi
  40352b:	eb 52                	jmp    40357f <__ctype_b_loc@plt+0x155f>
  40352d:	49 8b 4b f0          	mov    -0x10(%r11),%rcx
  403531:	4c 89 4c 24 20       	mov    %r9,0x20(%rsp)
  403536:	44 8b 0d 83 5d 22 00 	mov    0x225d83(%rip),%r9d        # 6292c0 <_fini@@Base+0x20d09c>
  40353d:	8b 05 81 5d 22 00    	mov    0x225d81(%rip),%eax        # 6292c4 <_fini@@Base+0x20d0a0>
  403543:	89 04 24             	mov    %eax,(%rsp)
  403546:	89 7c 24 18          	mov    %edi,0x18(%rsp)
  40354a:	bf 12 00 00 00       	mov    $0x12,%edi
  40354f:	31 f6                	xor    %esi,%esi
  403551:	89 54 24 1c          	mov    %edx,0x1c(%rsp)
  403555:	31 d2                	xor    %edx,%edx
  403557:	eb 28                	jmp    403581 <__ctype_b_loc@plt+0x1561>
  403559:	4c 89 4c 24 20       	mov    %r9,0x20(%rsp)
  40355e:	44 8b 0d 5b 5d 22 00 	mov    0x225d5b(%rip),%r9d        # 6292c0 <_fini@@Base+0x20d09c>
  403565:	8b 05 59 5d 22 00    	mov    0x225d59(%rip),%eax        # 6292c4 <_fini@@Base+0x20d0a0>
  40356b:	89 04 24             	mov    %eax,(%rsp)
  40356e:	89 7c 24 18          	mov    %edi,0x18(%rsp)
  403572:	bf 12 00 00 00       	mov    $0x12,%edi
  403577:	31 f6                	xor    %esi,%esi
  403579:	89 54 24 1c          	mov    %edx,0x1c(%rsp)
  40357d:	31 d2                	xor    %edx,%edx
  40357f:	31 c9                	xor    %ecx,%ecx
  403581:	0f 57 c0             	xorps  %xmm0,%xmm0
  403584:	44 89 44 24 14       	mov    %r8d,0x14(%rsp)
  403589:	45 31 c0             	xor    %r8d,%r8d
  40358c:	4c 89 54 24 30       	mov    %r10,0x30(%rsp)
  403591:	4d 89 dc             	mov    %r11,%r12
  403594:	e8 b7 6f 00 00       	callq  40a550 <__ctype_b_loc@plt+0x8530>
  403599:	49 8b 14 24          	mov    (%r12),%rdx
  40359d:	44 8b 0d 1c 5d 22 00 	mov    0x225d1c(%rip),%r9d        # 6292c0 <_fini@@Base+0x20d09c>
  4035a4:	8b 0d 1a 5d 22 00    	mov    0x225d1a(%rip),%ecx        # 6292c4 <_fini@@Base+0x20d0a0>
  4035aa:	89 0c 24             	mov    %ecx,(%rsp)
  4035ad:	bf 15 00 00 00       	mov    $0x15,%edi
  4035b2:	31 c9                	xor    %ecx,%ecx
  4035b4:	0f 57 c0             	xorps  %xmm0,%xmm0
  4035b7:	45 31 c0             	xor    %r8d,%r8d
  4035ba:	48 89 c6             	mov    %rax,%rsi
  4035bd:	e8 8e 6f 00 00       	callq  40a550 <__ctype_b_loc@plt+0x8530>
  4035c2:	44 8b 44 24 14       	mov    0x14(%rsp),%r8d
  4035c7:	8b 7c 24 18          	mov    0x18(%rsp),%edi
  4035cb:	8b 54 24 1c          	mov    0x1c(%rsp),%edx
  4035cf:	4d 89 e3             	mov    %r12,%r11
  4035d2:	4c 8b 54 24 30       	mov    0x30(%rsp),%r10
  4035d7:	e9 d0 08 00 00       	jmpq   403eac <__ctype_b_loc@plt+0x1e8c>
  4035dc:	4c 89 4c 24 20       	mov    %r9,0x20(%rsp)
  4035e1:	44 8b 0d d8 5c 22 00 	mov    0x225cd8(%rip),%r9d        # 6292c0 <_fini@@Base+0x20d09c>
  4035e8:	8b 05 d6 5c 22 00    	mov    0x225cd6(%rip),%eax        # 6292c4 <_fini@@Base+0x20d0a0>
  4035ee:	89 04 24             	mov    %eax,(%rsp)
  4035f1:	89 7c 24 18          	mov    %edi,0x18(%rsp)
  4035f5:	bf 0b 00 00 00       	mov    $0xb,%edi
  4035fa:	31 f6                	xor    %esi,%esi
  4035fc:	e9 76 08 00 00       	jmpq   403e77 <__ctype_b_loc@plt+0x1e57>
  403601:	4c 89 4c 24 20       	mov    %r9,0x20(%rsp)
  403606:	44 8b 0d b3 5c 22 00 	mov    0x225cb3(%rip),%r9d        # 6292c0 <_fini@@Base+0x20d09c>
  40360d:	8b 05 b1 5c 22 00    	mov    0x225cb1(%rip),%eax        # 6292c4 <_fini@@Base+0x20d0a0>
  403613:	89 04 24             	mov    %eax,(%rsp)
  403616:	89 7c 24 18          	mov    %edi,0x18(%rsp)
  40361a:	bf 05 00 00 00       	mov    $0x5,%edi
  40361f:	31 f6                	xor    %esi,%esi
  403621:	e9 51 08 00 00       	jmpq   403e77 <__ctype_b_loc@plt+0x1e57>
  403626:	4c 89 4c 24 20       	mov    %r9,0x20(%rsp)
  40362b:	44 8b 0d 8e 5c 22 00 	mov    0x225c8e(%rip),%r9d        # 6292c0 <_fini@@Base+0x20d09c>
  403632:	8b 05 8c 5c 22 00    	mov    0x225c8c(%rip),%eax        # 6292c4 <_fini@@Base+0x20d0a0>
  403638:	89 04 24             	mov    %eax,(%rsp)
  40363b:	89 7c 24 18          	mov    %edi,0x18(%rsp)
  40363f:	bf 23 00 00 00       	mov    $0x23,%edi
  403644:	31 f6                	xor    %esi,%esi
  403646:	e9 2c 08 00 00       	jmpq   403e77 <__ctype_b_loc@plt+0x1e57>
  40364b:	49 8b 73 f8          	mov    -0x8(%r11),%rsi
  40364f:	4c 89 4c 24 20       	mov    %r9,0x20(%rsp)
  403654:	44 8b 0d 65 5c 22 00 	mov    0x225c65(%rip),%r9d        # 6292c0 <_fini@@Base+0x20d09c>
  40365b:	8b 05 63 5c 22 00    	mov    0x225c63(%rip),%eax        # 6292c4 <_fini@@Base+0x20d0a0>
  403661:	89 04 24             	mov    %eax,(%rsp)
  403664:	89 7c 24 18          	mov    %edi,0x18(%rsp)
  403668:	bf 23 00 00 00       	mov    $0x23,%edi
  40366d:	e9 74 06 00 00       	jmpq   403ce6 <__ctype_b_loc@plt+0x1cc6>
  403672:	49 8b 73 f0          	mov    -0x10(%r11),%rsi
  403676:	89 54 24 1c          	mov    %edx,0x1c(%rsp)
  40367a:	49 8b 13             	mov    (%r11),%rdx
  40367d:	4c 89 4c 24 20       	mov    %r9,0x20(%rsp)
  403682:	44 8b 0d 37 5c 22 00 	mov    0x225c37(%rip),%r9d        # 6292c0 <_fini@@Base+0x20d09c>
  403689:	8b 05 35 5c 22 00    	mov    0x225c35(%rip),%eax        # 6292c4 <_fini@@Base+0x20d0a0>
  40368f:	89 04 24             	mov    %eax,(%rsp)
  403692:	89 7c 24 18          	mov    %edi,0x18(%rsp)
  403696:	bf 32 00 00 00       	mov    $0x32,%edi
  40369b:	e9 dd 07 00 00       	jmpq   403e7d <__ctype_b_loc@plt+0x1e5d>
  4036a0:	49 8b 73 f8          	mov    -0x8(%r11),%rsi
  4036a4:	89 54 24 1c          	mov    %edx,0x1c(%rsp)
  4036a8:	49 8b 13             	mov    (%r11),%rdx
  4036ab:	4c 89 4c 24 20       	mov    %r9,0x20(%rsp)
  4036b0:	44 8b 0d 09 5c 22 00 	mov    0x225c09(%rip),%r9d        # 6292c0 <_fini@@Base+0x20d09c>
  4036b7:	8b 05 07 5c 22 00    	mov    0x225c07(%rip),%eax        # 6292c4 <_fini@@Base+0x20d0a0>
  4036bd:	89 04 24             	mov    %eax,(%rsp)
  4036c0:	89 7c 24 18          	mov    %edi,0x18(%rsp)
  4036c4:	bf 2b 00 00 00       	mov    $0x2b,%edi
  4036c9:	e9 af 07 00 00       	jmpq   403e7d <__ctype_b_loc@plt+0x1e5d>
  4036ce:	49 8b 73 f8          	mov    -0x8(%r11),%rsi
  4036d2:	49 8b 0b             	mov    (%r11),%rcx
  4036d5:	4c 89 4c 24 20       	mov    %r9,0x20(%rsp)
  4036da:	44 8b 0d df 5b 22 00 	mov    0x225bdf(%rip),%r9d        # 6292c0 <_fini@@Base+0x20d09c>
  4036e1:	8b 05 dd 5b 22 00    	mov    0x225bdd(%rip),%eax        # 6292c4 <_fini@@Base+0x20d0a0>
  4036e7:	89 04 24             	mov    %eax,(%rsp)
  4036ea:	89 7c 24 18          	mov    %edi,0x18(%rsp)
  4036ee:	bf 2b 00 00 00       	mov    $0x2b,%edi
  4036f3:	89 54 24 1c          	mov    %edx,0x1c(%rsp)
  4036f7:	ba 00 00 00 00       	mov    $0x0,%edx
  4036fc:	e9 7e 07 00 00       	jmpq   403e7f <__ctype_b_loc@plt+0x1e5f>
  403701:	49 8b 73 f0          	mov    -0x10(%r11),%rsi
  403705:	89 54 24 1c          	mov    %edx,0x1c(%rsp)
  403709:	49 8b 53 f8          	mov    -0x8(%r11),%rdx
  40370d:	49 8b 0b             	mov    (%r11),%rcx
  403710:	4c 89 4c 24 20       	mov    %r9,0x20(%rsp)
  403715:	44 8b 0d a4 5b 22 00 	mov    0x225ba4(%rip),%r9d        # 6292c0 <_fini@@Base+0x20d09c>
  40371c:	8b 05 a2 5b 22 00    	mov    0x225ba2(%rip),%eax        # 6292c4 <_fini@@Base+0x20d0a0>
  403722:	89 04 24             	mov    %eax,(%rsp)
  403725:	89 7c 24 18          	mov    %edi,0x18(%rsp)
  403729:	bf 2b 00 00 00       	mov    $0x2b,%edi
  40372e:	e9 4c 07 00 00       	jmpq   403e7f <__ctype_b_loc@plt+0x1e5f>
  403733:	49 8b 73 f0          	mov    -0x10(%r11),%rsi
  403737:	89 54 24 1c          	mov    %edx,0x1c(%rsp)
  40373b:	49 8b 13             	mov    (%r11),%rdx
  40373e:	4c 89 4c 24 20       	mov    %r9,0x20(%rsp)
  403743:	44 8b 0d 76 5b 22 00 	mov    0x225b76(%rip),%r9d        # 6292c0 <_fini@@Base+0x20d09c>
  40374a:	8b 05 74 5b 22 00    	mov    0x225b74(%rip),%eax        # 6292c4 <_fini@@Base+0x20d0a0>
  403750:	89 04 24             	mov    %eax,(%rsp)
  403753:	89 7c 24 18          	mov    %edi,0x18(%rsp)
  403757:	bf 08 00 00 00       	mov    $0x8,%edi
  40375c:	e9 1c 07 00 00       	jmpq   403e7d <__ctype_b_loc@plt+0x1e5d>
  403761:	49 8b 33             	mov    (%r11),%rsi
  403764:	4c 89 4c 24 20       	mov    %r9,0x20(%rsp)
  403769:	44 8b 0d 50 5b 22 00 	mov    0x225b50(%rip),%r9d        # 6292c0 <_fini@@Base+0x20d09c>
  403770:	8b 05 4e 5b 22 00    	mov    0x225b4e(%rip),%eax        # 6292c4 <_fini@@Base+0x20d0a0>
  403776:	89 04 24             	mov    %eax,(%rsp)
  403779:	89 7c 24 18          	mov    %edi,0x18(%rsp)
  40377d:	bf 14 00 00 00       	mov    $0x14,%edi
  403782:	e9 5f 05 00 00       	jmpq   403ce6 <__ctype_b_loc@plt+0x1cc6>
  403787:	4c 89 4c 24 20       	mov    %r9,0x20(%rsp)
  40378c:	44 8b 0d 2d 5b 22 00 	mov    0x225b2d(%rip),%r9d        # 6292c0 <_fini@@Base+0x20d09c>
  403793:	8b 05 2b 5b 22 00    	mov    0x225b2b(%rip),%eax        # 6292c4 <_fini@@Base+0x20d0a0>
  403799:	89 04 24             	mov    %eax,(%rsp)
  40379c:	89 7c 24 18          	mov    %edi,0x18(%rsp)
  4037a0:	bf 0c 00 00 00       	mov    $0xc,%edi
  4037a5:	31 f6                	xor    %esi,%esi
  4037a7:	e9 cb 06 00 00       	jmpq   403e77 <__ctype_b_loc@plt+0x1e57>
  4037ac:	49 8b 73 f8          	mov    -0x8(%r11),%rsi
  4037b0:	4c 89 4c 24 20       	mov    %r9,0x20(%rsp)
  4037b5:	44 8b 0d 04 5b 22 00 	mov    0x225b04(%rip),%r9d        # 6292c0 <_fini@@Base+0x20d09c>
  4037bc:	8b 05 02 5b 22 00    	mov    0x225b02(%rip),%eax        # 6292c4 <_fini@@Base+0x20d0a0>
  4037c2:	89 04 24             	mov    %eax,(%rsp)
  4037c5:	89 7c 24 18          	mov    %edi,0x18(%rsp)
  4037c9:	bf 2a 00 00 00       	mov    $0x2a,%edi
  4037ce:	e9 13 05 00 00       	jmpq   403ce6 <__ctype_b_loc@plt+0x1cc6>
  4037d3:	49 8b 73 f0          	mov    -0x10(%r11),%rsi
  4037d7:	89 54 24 1c          	mov    %edx,0x1c(%rsp)
  4037db:	49 8b 13             	mov    (%r11),%rdx
  4037de:	4c 89 4c 24 20       	mov    %r9,0x20(%rsp)
  4037e3:	44 8b 0d d6 5a 22 00 	mov    0x225ad6(%rip),%r9d        # 6292c0 <_fini@@Base+0x20d09c>
  4037ea:	8b 05 d4 5a 22 00    	mov    0x225ad4(%rip),%eax        # 6292c4 <_fini@@Base+0x20d0a0>
  4037f0:	89 04 24             	mov    %eax,(%rsp)
  4037f3:	89 7c 24 18          	mov    %edi,0x18(%rsp)
  4037f7:	bf 27 00 00 00       	mov    $0x27,%edi
  4037fc:	e9 7c 06 00 00       	jmpq   403e7d <__ctype_b_loc@plt+0x1e5d>
  403801:	49 8b 73 f8          	mov    -0x8(%r11),%rsi
  403805:	4c 89 4c 24 20       	mov    %r9,0x20(%rsp)
  40380a:	44 8b 0d af 5a 22 00 	mov    0x225aaf(%rip),%r9d        # 6292c0 <_fini@@Base+0x20d09c>
  403811:	8b 05 ad 5a 22 00    	mov    0x225aad(%rip),%eax        # 6292c4 <_fini@@Base+0x20d0a0>
  403817:	89 04 24             	mov    %eax,(%rsp)
  40381a:	89 7c 24 18          	mov    %edi,0x18(%rsp)
  40381e:	bf 07 00 00 00       	mov    $0x7,%edi
  403823:	e9 be 04 00 00       	jmpq   403ce6 <__ctype_b_loc@plt+0x1cc6>
  403828:	89 54 24 1c          	mov    %edx,0x1c(%rsp)
  40382c:	49 8b 53 f8          	mov    -0x8(%r11),%rdx
  403830:	4c 89 4c 24 20       	mov    %r9,0x20(%rsp)
  403835:	44 8b 0d 84 5a 22 00 	mov    0x225a84(%rip),%r9d        # 6292c0 <_fini@@Base+0x20d09c>
  40383c:	8b 05 82 5a 22 00    	mov    0x225a82(%rip),%eax        # 6292c4 <_fini@@Base+0x20d0a0>
  403842:	89 04 24             	mov    %eax,(%rsp)
  403845:	89 7c 24 18          	mov    %edi,0x18(%rsp)
  403849:	bf 07 00 00 00       	mov    $0x7,%edi
  40384e:	31 f6                	xor    %esi,%esi
  403850:	e9 28 06 00 00       	jmpq   403e7d <__ctype_b_loc@plt+0x1e5d>
  403855:	49 8b 73 f0          	mov    -0x10(%r11),%rsi
  403859:	89 54 24 1c          	mov    %edx,0x1c(%rsp)
  40385d:	49 8b 53 f8          	mov    -0x8(%r11),%rdx
  403861:	4c 89 4c 24 20       	mov    %r9,0x20(%rsp)
  403866:	44 8b 0d 53 5a 22 00 	mov    0x225a53(%rip),%r9d        # 6292c0 <_fini@@Base+0x20d09c>
  40386d:	8b 05 51 5a 22 00    	mov    0x225a51(%rip),%eax        # 6292c4 <_fini@@Base+0x20d0a0>
  403873:	89 04 24             	mov    %eax,(%rsp)
  403876:	89 7c 24 18          	mov    %edi,0x18(%rsp)
  40387a:	bf 07 00 00 00       	mov    $0x7,%edi
  40387f:	e9 f9 05 00 00       	jmpq   403e7d <__ctype_b_loc@plt+0x1e5d>
  403884:	49 8b 73 e8          	mov    -0x18(%r11),%rsi
  403888:	89 54 24 1c          	mov    %edx,0x1c(%rsp)
  40388c:	49 8b 53 f0          	mov    -0x10(%r11),%rdx
  403890:	49 8b 4b f8          	mov    -0x8(%r11),%rcx
  403894:	4c 89 4c 24 20       	mov    %r9,0x20(%rsp)
  403899:	44 8b 0d 20 5a 22 00 	mov    0x225a20(%rip),%r9d        # 6292c0 <_fini@@Base+0x20d09c>
  4038a0:	8b 05 1e 5a 22 00    	mov    0x225a1e(%rip),%eax        # 6292c4 <_fini@@Base+0x20d0a0>
  4038a6:	89 04 24             	mov    %eax,(%rsp)
  4038a9:	89 7c 24 18          	mov    %edi,0x18(%rsp)
  4038ad:	bf 07 00 00 00       	mov    $0x7,%edi
  4038b2:	e9 c8 05 00 00       	jmpq   403e7f <__ctype_b_loc@plt+0x1e5f>
  4038b7:	49 8b 33             	mov    (%r11),%rsi
  4038ba:	4c 89 4c 24 20       	mov    %r9,0x20(%rsp)
  4038bf:	44 8b 0d fa 59 22 00 	mov    0x2259fa(%rip),%r9d        # 6292c0 <_fini@@Base+0x20d09c>
  4038c6:	8b 05 f8 59 22 00    	mov    0x2259f8(%rip),%eax        # 6292c4 <_fini@@Base+0x20d0a0>
  4038cc:	89 04 24             	mov    %eax,(%rsp)
  4038cf:	89 7c 24 18          	mov    %edi,0x18(%rsp)
  4038d3:	bf 0a 00 00 00       	mov    $0xa,%edi
  4038d8:	e9 09 04 00 00       	jmpq   403ce6 <__ctype_b_loc@plt+0x1cc6>
  4038dd:	89 54 24 1c          	mov    %edx,0x1c(%rsp)
  4038e1:	49 8b 53 f8          	mov    -0x8(%r11),%rdx
  4038e5:	49 8b 33             	mov    (%r11),%rsi
  4038e8:	4c 89 4c 24 20       	mov    %r9,0x20(%rsp)
  4038ed:	44 8b 0d cc 59 22 00 	mov    0x2259cc(%rip),%r9d        # 6292c0 <_fini@@Base+0x20d09c>
  4038f4:	8b 05 ca 59 22 00    	mov    0x2259ca(%rip),%eax        # 6292c4 <_fini@@Base+0x20d0a0>
  4038fa:	89 04 24             	mov    %eax,(%rsp)
  4038fd:	89 7c 24 18          	mov    %edi,0x18(%rsp)
  403901:	bf 0a 00 00 00       	mov    $0xa,%edi
  403906:	e9 72 05 00 00       	jmpq   403e7d <__ctype_b_loc@plt+0x1e5d>
  40390b:	49 8b 73 f0          	mov    -0x10(%r11),%rsi
  40390f:	89 54 24 1c          	mov    %edx,0x1c(%rsp)
  403913:	49 8b 13             	mov    (%r11),%rdx
  403916:	4c 89 4c 24 20       	mov    %r9,0x20(%rsp)
  40391b:	44 8b 0d 9e 59 22 00 	mov    0x22599e(%rip),%r9d        # 6292c0 <_fini@@Base+0x20d09c>
  403922:	8b 05 9c 59 22 00    	mov    0x22599c(%rip),%eax        # 6292c4 <_fini@@Base+0x20d0a0>
  403928:	89 04 24             	mov    %eax,(%rsp)
  40392b:	89 7c 24 18          	mov    %edi,0x18(%rsp)
  40392f:	bf 09 00 00 00       	mov    $0x9,%edi
  403934:	e9 44 05 00 00       	jmpq   403e7d <__ctype_b_loc@plt+0x1e5d>
  403939:	49 8b 73 f8          	mov    -0x8(%r11),%rsi
  40393d:	4c 89 4c 24 20       	mov    %r9,0x20(%rsp)
  403942:	44 8b 0d 77 59 22 00 	mov    0x225977(%rip),%r9d        # 6292c0 <_fini@@Base+0x20d09c>
  403949:	8b 05 75 59 22 00    	mov    0x225975(%rip),%eax        # 6292c4 <_fini@@Base+0x20d0a0>
  40394f:	89 04 24             	mov    %eax,(%rsp)
  403952:	89 7c 24 18          	mov    %edi,0x18(%rsp)
  403956:	bf 09 00 00 00       	mov    $0x9,%edi
  40395b:	e9 86 03 00 00       	jmpq   403ce6 <__ctype_b_loc@plt+0x1cc6>
  403960:	89 54 24 1c          	mov    %edx,0x1c(%rsp)
  403964:	49 8b 13             	mov    (%r11),%rdx
  403967:	4c 89 4c 24 20       	mov    %r9,0x20(%rsp)
  40396c:	44 8b 0d 4d 59 22 00 	mov    0x22594d(%rip),%r9d        # 6292c0 <_fini@@Base+0x20d09c>
  403973:	8b 05 4b 59 22 00    	mov    0x22594b(%rip),%eax        # 6292c4 <_fini@@Base+0x20d0a0>
  403979:	89 04 24             	mov    %eax,(%rsp)
  40397c:	89 7c 24 18          	mov    %edi,0x18(%rsp)
  403980:	bf 09 00 00 00       	mov    $0x9,%edi
  403985:	31 f6                	xor    %esi,%esi
  403987:	e9 f1 04 00 00       	jmpq   403e7d <__ctype_b_loc@plt+0x1e5d>
  40398c:	4c 89 4c 24 20       	mov    %r9,0x20(%rsp)
  403991:	44 8b 0d 28 59 22 00 	mov    0x225928(%rip),%r9d        # 6292c0 <_fini@@Base+0x20d09c>
  403998:	8b 05 26 59 22 00    	mov    0x225926(%rip),%eax        # 6292c4 <_fini@@Base+0x20d0a0>
  40399e:	89 04 24             	mov    %eax,(%rsp)
  4039a1:	89 7c 24 18          	mov    %edi,0x18(%rsp)
  4039a5:	bf 09 00 00 00       	mov    $0x9,%edi
  4039aa:	31 f6                	xor    %esi,%esi
  4039ac:	e9 c6 04 00 00       	jmpq   403e77 <__ctype_b_loc@plt+0x1e57>
  4039b1:	49 8b 03             	mov    (%r11),%rax
  4039b4:	e9 f8 04 00 00       	jmpq   403eb1 <__ctype_b_loc@plt+0x1e91>
  4039b9:	49 8b 73 f8          	mov    -0x8(%r11),%rsi
  4039bd:	eb 0a                	jmp    4039c9 <__ctype_b_loc@plt+0x19a9>
  4039bf:	49 8b 73 f0          	mov    -0x10(%r11),%rsi
  4039c3:	eb 04                	jmp    4039c9 <__ctype_b_loc@plt+0x19a9>
  4039c5:	49 8b 73 e8          	mov    -0x18(%r11),%rsi
  4039c9:	4c 89 4c 24 20       	mov    %r9,0x20(%rsp)
  4039ce:	44 8b 0d eb 58 22 00 	mov    0x2258eb(%rip),%r9d        # 6292c0 <_fini@@Base+0x20d09c>
  4039d5:	8b 05 e9 58 22 00    	mov    0x2258e9(%rip),%eax        # 6292c4 <_fini@@Base+0x20d0a0>
  4039db:	89 04 24             	mov    %eax,(%rsp)
  4039de:	89 7c 24 18          	mov    %edi,0x18(%rsp)
  4039e2:	bf 01 00 00 00       	mov    $0x1,%edi
  4039e7:	e9 fa 02 00 00       	jmpq   403ce6 <__ctype_b_loc@plt+0x1cc6>
  4039ec:	89 54 24 1c          	mov    %edx,0x1c(%rsp)
  4039f0:	49 8b 53 f0          	mov    -0x10(%r11),%rdx
  4039f4:	eb 08                	jmp    4039fe <__ctype_b_loc@plt+0x19de>
  4039f6:	89 54 24 1c          	mov    %edx,0x1c(%rsp)
  4039fa:	49 8b 53 e8          	mov    -0x18(%r11),%rdx
  4039fe:	49 8b 33             	mov    (%r11),%rsi
  403a01:	4c 89 4c 24 20       	mov    %r9,0x20(%rsp)
  403a06:	44 8b 0d b3 58 22 00 	mov    0x2258b3(%rip),%r9d        # 6292c0 <_fini@@Base+0x20d09c>
  403a0d:	8b 05 b1 58 22 00    	mov    0x2258b1(%rip),%eax        # 6292c4 <_fini@@Base+0x20d0a0>
  403a13:	89 04 24             	mov    %eax,(%rsp)
  403a16:	89 7c 24 18          	mov    %edi,0x18(%rsp)
  403a1a:	bf 0f 00 00 00       	mov    $0xf,%edi
  403a1f:	e9 59 04 00 00       	jmpq   403e7d <__ctype_b_loc@plt+0x1e5d>
  403a24:	4c 89 4c 24 20       	mov    %r9,0x20(%rsp)
  403a29:	44 8b 0d 90 58 22 00 	mov    0x225890(%rip),%r9d        # 6292c0 <_fini@@Base+0x20d09c>
  403a30:	8b 05 8e 58 22 00    	mov    0x22588e(%rip),%eax        # 6292c4 <_fini@@Base+0x20d0a0>
  403a36:	89 04 24             	mov    %eax,(%rsp)
  403a39:	f2 0f 10 05 ff 87 01 	movsd  0x187ff(%rip),%xmm0        # 41c240 <_fini@@Base+0x1c>
  403a40:	00 
  403a41:	89 7c 24 18          	mov    %edi,0x18(%rsp)
  403a45:	bf 04 00 00 00       	mov    $0x4,%edi
  403a4a:	e9 98 00 00 00       	jmpq   403ae7 <__ctype_b_loc@plt+0x1ac7>
  403a4f:	4c 89 4c 24 20       	mov    %r9,0x20(%rsp)
  403a54:	44 8b 0d 65 58 22 00 	mov    0x225865(%rip),%r9d        # 6292c0 <_fini@@Base+0x20d09c>
  403a5b:	8b 05 63 58 22 00    	mov    0x225863(%rip),%eax        # 6292c4 <_fini@@Base+0x20d0a0>
  403a61:	89 04 24             	mov    %eax,(%rsp)
  403a64:	89 7c 24 18          	mov    %edi,0x18(%rsp)
  403a68:	bf 04 00 00 00       	mov    $0x4,%edi
  403a6d:	31 f6                	xor    %esi,%esi
  403a6f:	e9 03 04 00 00       	jmpq   403e77 <__ctype_b_loc@plt+0x1e57>
  403a74:	44 89 44 24 14       	mov    %r8d,0x14(%rsp)
  403a79:	4d 8b 03             	mov    (%r11),%r8
  403a7c:	4c 89 4c 24 20       	mov    %r9,0x20(%rsp)
  403a81:	44 8b 0d 38 58 22 00 	mov    0x225838(%rip),%r9d        # 6292c0 <_fini@@Base+0x20d09c>
  403a88:	8b 05 36 58 22 00    	mov    0x225836(%rip),%eax        # 6292c4 <_fini@@Base+0x20d0a0>
  403a8e:	89 04 24             	mov    %eax,(%rsp)
  403a91:	89 7c 24 18          	mov    %edi,0x18(%rsp)
  403a95:	bf 26 00 00 00       	mov    $0x26,%edi
  403a9a:	e9 b8 02 00 00       	jmpq   403d57 <__ctype_b_loc@plt+0x1d37>
  403a9f:	4c 89 4c 24 20       	mov    %r9,0x20(%rsp)
  403aa4:	44 8b 0d 15 58 22 00 	mov    0x225815(%rip),%r9d        # 6292c0 <_fini@@Base+0x20d09c>
  403aab:	8b 05 13 58 22 00    	mov    0x225813(%rip),%eax        # 6292c4 <_fini@@Base+0x20d0a0>
  403ab1:	89 04 24             	mov    %eax,(%rsp)
  403ab4:	89 7c 24 18          	mov    %edi,0x18(%rsp)
  403ab8:	bf 1c 00 00 00       	mov    $0x1c,%edi
  403abd:	31 f6                	xor    %esi,%esi
  403abf:	e9 b3 03 00 00       	jmpq   403e77 <__ctype_b_loc@plt+0x1e57>
  403ac4:	f2 41 0f 10 03       	movsd  (%r11),%xmm0
  403ac9:	4c 89 4c 24 20       	mov    %r9,0x20(%rsp)
  403ace:	44 8b 0d eb 57 22 00 	mov    0x2257eb(%rip),%r9d        # 6292c0 <_fini@@Base+0x20d09c>
  403ad5:	8b 05 e9 57 22 00    	mov    0x2257e9(%rip),%eax        # 6292c4 <_fini@@Base+0x20d0a0>
  403adb:	89 04 24             	mov    %eax,(%rsp)
  403ade:	89 7c 24 18          	mov    %edi,0x18(%rsp)
  403ae2:	bf 1d 00 00 00       	mov    $0x1d,%edi
  403ae7:	31 f6                	xor    %esi,%esi
  403ae9:	89 54 24 1c          	mov    %edx,0x1c(%rsp)
  403aed:	31 d2                	xor    %edx,%edx
  403aef:	31 c9                	xor    %ecx,%ecx
  403af1:	e9 8c 03 00 00       	jmpq   403e82 <__ctype_b_loc@plt+0x1e62>
  403af6:	4c 89 4c 24 20       	mov    %r9,0x20(%rsp)
  403afb:	44 8b 0d be 57 22 00 	mov    0x2257be(%rip),%r9d        # 6292c0 <_fini@@Base+0x20d09c>
  403b02:	8b 05 bc 57 22 00    	mov    0x2257bc(%rip),%eax        # 6292c4 <_fini@@Base+0x20d0a0>
  403b08:	89 04 24             	mov    %eax,(%rsp)
  403b0b:	89 7c 24 18          	mov    %edi,0x18(%rsp)
  403b0f:	bf 1e 00 00 00       	mov    $0x1e,%edi
  403b14:	31 f6                	xor    %esi,%esi
  403b16:	e9 5c 03 00 00       	jmpq   403e77 <__ctype_b_loc@plt+0x1e57>
  403b1b:	49 8b 73 f8          	mov    -0x8(%r11),%rsi
  403b1f:	eb 04                	jmp    403b25 <__ctype_b_loc@plt+0x1b05>
  403b21:	49 8b 73 f0          	mov    -0x10(%r11),%rsi
  403b25:	4c 89 4c 24 20       	mov    %r9,0x20(%rsp)
  403b2a:	44 8b 0d 8f 57 22 00 	mov    0x22578f(%rip),%r9d        # 6292c0 <_fini@@Base+0x20d09c>
  403b31:	8b 05 8d 57 22 00    	mov    0x22578d(%rip),%eax        # 6292c4 <_fini@@Base+0x20d0a0>
  403b37:	89 04 24             	mov    %eax,(%rsp)
  403b3a:	89 7c 24 18          	mov    %edi,0x18(%rsp)
  403b3e:	bf 1e 00 00 00       	mov    $0x1e,%edi
  403b43:	e9 9e 01 00 00       	jmpq   403ce6 <__ctype_b_loc@plt+0x1cc6>
  403b48:	49 8b 33             	mov    (%r11),%rsi
  403b4b:	4c 89 4c 24 20       	mov    %r9,0x20(%rsp)
  403b50:	44 8b 0d 69 57 22 00 	mov    0x225769(%rip),%r9d        # 6292c0 <_fini@@Base+0x20d09c>
  403b57:	8b 05 67 57 22 00    	mov    0x225767(%rip),%eax        # 6292c4 <_fini@@Base+0x20d0a0>
  403b5d:	89 04 24             	mov    %eax,(%rsp)
  403b60:	89 7c 24 18          	mov    %edi,0x18(%rsp)
  403b64:	bf 21 00 00 00       	mov    $0x21,%edi
  403b69:	e9 78 01 00 00       	jmpq   403ce6 <__ctype_b_loc@plt+0x1cc6>
  403b6e:	89 54 24 1c          	mov    %edx,0x1c(%rsp)
  403b72:	49 8b 53 f0          	mov    -0x10(%r11),%rdx
  403b76:	49 8b 33             	mov    (%r11),%rsi
  403b79:	4c 89 4c 24 20       	mov    %r9,0x20(%rsp)
  403b7e:	44 8b 0d 3b 57 22 00 	mov    0x22573b(%rip),%r9d        # 6292c0 <_fini@@Base+0x20d09c>
  403b85:	8b 05 39 57 22 00    	mov    0x225739(%rip),%eax        # 6292c4 <_fini@@Base+0x20d0a0>
  403b8b:	89 04 24             	mov    %eax,(%rsp)
  403b8e:	89 7c 24 18          	mov    %edi,0x18(%rsp)
  403b92:	bf 21 00 00 00       	mov    $0x21,%edi
  403b97:	e9 e1 02 00 00       	jmpq   403e7d <__ctype_b_loc@plt+0x1e5d>
  403b9c:	49 8b 73 f0          	mov    -0x10(%r11),%rsi
  403ba0:	89 54 24 1c          	mov    %edx,0x1c(%rsp)
  403ba4:	49 8b 13             	mov    (%r11),%rdx
  403ba7:	4c 89 4c 24 20       	mov    %r9,0x20(%rsp)
  403bac:	44 8b 0d 0d 57 22 00 	mov    0x22570d(%rip),%r9d        # 6292c0 <_fini@@Base+0x20d09c>
  403bb3:	8b 05 0b 57 22 00    	mov    0x22570b(%rip),%eax        # 6292c4 <_fini@@Base+0x20d0a0>
  403bb9:	89 04 24             	mov    %eax,(%rsp)
  403bbc:	89 7c 24 18          	mov    %edi,0x18(%rsp)
  403bc0:	bf 20 00 00 00       	mov    $0x20,%edi
  403bc5:	e9 b3 02 00 00       	jmpq   403e7d <__ctype_b_loc@plt+0x1e5d>
  403bca:	49 8b 03             	mov    (%r11),%rax
  403bcd:	e9 df 02 00 00       	jmpq   403eb1 <__ctype_b_loc@plt+0x1e91>
  403bd2:	44 89 44 24 14       	mov    %r8d,0x14(%rsp)
  403bd7:	4d 8b 03             	mov    (%r11),%r8
  403bda:	4c 89 4c 24 20       	mov    %r9,0x20(%rsp)
  403bdf:	44 8b 0d da 56 22 00 	mov    0x2256da(%rip),%r9d        # 6292c0 <_fini@@Base+0x20d09c>
  403be6:	8b 05 d8 56 22 00    	mov    0x2256d8(%rip),%eax        # 6292c4 <_fini@@Base+0x20d0a0>
  403bec:	89 04 24             	mov    %eax,(%rsp)
  403bef:	89 7c 24 18          	mov    %edi,0x18(%rsp)
  403bf3:	bf 22 00 00 00       	mov    $0x22,%edi
  403bf8:	e9 5a 01 00 00       	jmpq   403d57 <__ctype_b_loc@plt+0x1d37>
  403bfd:	49 8b 4b d0          	mov    -0x30(%r11),%rcx
  403c01:	49 8b 73 e0          	mov    -0x20(%r11),%rsi
  403c05:	89 54 24 1c          	mov    %edx,0x1c(%rsp)
  403c09:	49 8b 53 f8          	mov    -0x8(%r11),%rdx
  403c0d:	4c 89 4c 24 20       	mov    %r9,0x20(%rsp)
  403c12:	44 8b 0d a7 56 22 00 	mov    0x2256a7(%rip),%r9d        # 6292c0 <_fini@@Base+0x20d09c>
  403c19:	8b 05 a5 56 22 00    	mov    0x2256a5(%rip),%eax        # 6292c4 <_fini@@Base+0x20d0a0>
  403c1f:	89 04 24             	mov    %eax,(%rsp)
  403c22:	89 7c 24 18          	mov    %edi,0x18(%rsp)
  403c26:	bf 17 00 00 00       	mov    $0x17,%edi
  403c2b:	e9 4f 02 00 00       	jmpq   403e7f <__ctype_b_loc@plt+0x1e5f>
  403c30:	49 8b 4b d8          	mov    -0x28(%r11),%rcx
  403c34:	89 54 24 1c          	mov    %edx,0x1c(%rsp)
  403c38:	49 8b 53 f8          	mov    -0x8(%r11),%rdx
  403c3c:	4c 89 4c 24 20       	mov    %r9,0x20(%rsp)
  403c41:	44 8b 0d 78 56 22 00 	mov    0x225678(%rip),%r9d        # 6292c0 <_fini@@Base+0x20d09c>
  403c48:	8b 05 76 56 22 00    	mov    0x225676(%rip),%eax        # 6292c4 <_fini@@Base+0x20d0a0>
  403c4e:	89 04 24             	mov    %eax,(%rsp)
  403c51:	89 7c 24 18          	mov    %edi,0x18(%rsp)
  403c55:	bf 17 00 00 00       	mov    $0x17,%edi
  403c5a:	31 f6                	xor    %esi,%esi
  403c5c:	e9 1e 02 00 00       	jmpq   403e7f <__ctype_b_loc@plt+0x1e5f>
  403c61:	49 8b 73 e0          	mov    -0x20(%r11),%rsi
  403c65:	89 54 24 1c          	mov    %edx,0x1c(%rsp)
  403c69:	49 8b 53 f8          	mov    -0x8(%r11),%rdx
  403c6d:	4c 89 4c 24 20       	mov    %r9,0x20(%rsp)
  403c72:	44 8b 0d 47 56 22 00 	mov    0x225647(%rip),%r9d        # 6292c0 <_fini@@Base+0x20d09c>
  403c79:	8b 05 45 56 22 00    	mov    0x225645(%rip),%eax        # 6292c4 <_fini@@Base+0x20d0a0>
  403c7f:	89 04 24             	mov    %eax,(%rsp)
  403c82:	89 7c 24 18          	mov    %edi,0x18(%rsp)
  403c86:	bf 17 00 00 00       	mov    $0x17,%edi
  403c8b:	e9 ed 01 00 00       	jmpq   403e7d <__ctype_b_loc@plt+0x1e5d>
  403c90:	89 54 24 1c          	mov    %edx,0x1c(%rsp)
  403c94:	49 8b 53 f8          	mov    -0x8(%r11),%rdx
  403c98:	4c 89 4c 24 20       	mov    %r9,0x20(%rsp)
  403c9d:	44 8b 0d 1c 56 22 00 	mov    0x22561c(%rip),%r9d        # 6292c0 <_fini@@Base+0x20d09c>
  403ca4:	8b 05 1a 56 22 00    	mov    0x22561a(%rip),%eax        # 6292c4 <_fini@@Base+0x20d0a0>
  403caa:	89 04 24             	mov    %eax,(%rsp)
  403cad:	89 7c 24 18          	mov    %edi,0x18(%rsp)
  403cb1:	bf 17 00 00 00       	mov    $0x17,%edi
  403cb6:	31 f6                	xor    %esi,%esi
  403cb8:	e9 c0 01 00 00       	jmpq   403e7d <__ctype_b_loc@plt+0x1e5d>
  403cbd:	49 8b 03             	mov    (%r11),%rax
  403cc0:	e9 ec 01 00 00       	jmpq   403eb1 <__ctype_b_loc@plt+0x1e91>
  403cc5:	49 8b 33             	mov    (%r11),%rsi
  403cc8:	4c 89 4c 24 20       	mov    %r9,0x20(%rsp)
  403ccd:	44 8b 0d ec 55 22 00 	mov    0x2255ec(%rip),%r9d        # 6292c0 <_fini@@Base+0x20d09c>
  403cd4:	8b 05 ea 55 22 00    	mov    0x2255ea(%rip),%eax        # 6292c4 <_fini@@Base+0x20d0a0>
  403cda:	89 04 24             	mov    %eax,(%rsp)
  403cdd:	89 7c 24 18          	mov    %edi,0x18(%rsp)
  403ce1:	bf 1f 00 00 00       	mov    $0x1f,%edi
  403ce6:	89 54 24 1c          	mov    %edx,0x1c(%rsp)
  403cea:	ba 00 00 00 00       	mov    $0x0,%edx
  403cef:	e9 89 01 00 00       	jmpq   403e7d <__ctype_b_loc@plt+0x1e5d>
  403cf4:	89 54 24 1c          	mov    %edx,0x1c(%rsp)
  403cf8:	49 8b 53 f0          	mov    -0x10(%r11),%rdx
  403cfc:	49 8b 33             	mov    (%r11),%rsi
  403cff:	4c 89 4c 24 20       	mov    %r9,0x20(%rsp)
  403d04:	44 8b 0d b5 55 22 00 	mov    0x2255b5(%rip),%r9d        # 6292c0 <_fini@@Base+0x20d09c>
  403d0b:	8b 05 b3 55 22 00    	mov    0x2255b3(%rip),%eax        # 6292c4 <_fini@@Base+0x20d0a0>
  403d11:	89 04 24             	mov    %eax,(%rsp)
  403d14:	89 7c 24 18          	mov    %edi,0x18(%rsp)
  403d18:	bf 1f 00 00 00       	mov    $0x1f,%edi
  403d1d:	e9 5b 01 00 00       	jmpq   403e7d <__ctype_b_loc@plt+0x1e5d>
  403d22:	49 8b 03             	mov    (%r11),%rax
  403d25:	e9 87 01 00 00       	jmpq   403eb1 <__ctype_b_loc@plt+0x1e91>
  403d2a:	31 c0                	xor    %eax,%eax
  403d2c:	e9 80 01 00 00       	jmpq   403eb1 <__ctype_b_loc@plt+0x1e91>
  403d31:	44 89 44 24 14       	mov    %r8d,0x14(%rsp)
  403d36:	4d 8b 03             	mov    (%r11),%r8
  403d39:	4c 89 4c 24 20       	mov    %r9,0x20(%rsp)
  403d3e:	44 8b 0d 7b 55 22 00 	mov    0x22557b(%rip),%r9d        # 6292c0 <_fini@@Base+0x20d09c>
  403d45:	8b 05 79 55 22 00    	mov    0x225579(%rip),%eax        # 6292c4 <_fini@@Base+0x20d0a0>
  403d4b:	89 04 24             	mov    %eax,(%rsp)
  403d4e:	89 7c 24 18          	mov    %edi,0x18(%rsp)
  403d52:	bf 18 00 00 00       	mov    $0x18,%edi
  403d57:	31 f6                	xor    %esi,%esi
  403d59:	89 54 24 1c          	mov    %edx,0x1c(%rsp)
  403d5d:	31 d2                	xor    %edx,%edx
  403d5f:	31 c9                	xor    %ecx,%ecx
  403d61:	0f 57 c0             	xorps  %xmm0,%xmm0
  403d64:	e9 21 01 00 00       	jmpq   403e8a <__ctype_b_loc@plt+0x1e6a>
  403d69:	49 8b 03             	mov    (%r11),%rax
  403d6c:	e9 40 01 00 00       	jmpq   403eb1 <__ctype_b_loc@plt+0x1e91>
  403d71:	49 8b 43 f8          	mov    -0x8(%r11),%rax
  403d75:	e9 37 01 00 00       	jmpq   403eb1 <__ctype_b_loc@plt+0x1e91>
  403d7a:	49 8b 03             	mov    (%r11),%rax
  403d7d:	e9 2f 01 00 00       	jmpq   403eb1 <__ctype_b_loc@plt+0x1e91>
  403d82:	49 8b 43 f8          	mov    -0x8(%r11),%rax
  403d86:	e9 26 01 00 00       	jmpq   403eb1 <__ctype_b_loc@plt+0x1e91>
  403d8b:	49 8b 73 f0          	mov    -0x10(%r11),%rsi
  403d8f:	89 54 24 1c          	mov    %edx,0x1c(%rsp)
  403d93:	49 8b 13             	mov    (%r11),%rdx
  403d96:	4c 89 4c 24 20       	mov    %r9,0x20(%rsp)
  403d9b:	44 8b 0d 1e 55 22 00 	mov    0x22551e(%rip),%r9d        # 6292c0 <_fini@@Base+0x20d09c>
  403da2:	8b 05 1c 55 22 00    	mov    0x22551c(%rip),%eax        # 6292c4 <_fini@@Base+0x20d0a0>
  403da8:	89 04 24             	mov    %eax,(%rsp)
  403dab:	89 7c 24 18          	mov    %edi,0x18(%rsp)
  403daf:	bf 11 00 00 00       	mov    $0x11,%edi
  403db4:	31 c9                	xor    %ecx,%ecx
  403db6:	0f 57 c0             	xorps  %xmm0,%xmm0
  403db9:	44 89 44 24 14       	mov    %r8d,0x14(%rsp)
  403dbe:	41 b8 9b 37 42 00    	mov    $0x42379b,%r8d
  403dc4:	e9 c1 00 00 00       	jmpq   403e8a <__ctype_b_loc@plt+0x1e6a>
  403dc9:	b8 e8 09 42 00       	mov    $0x4209e8,%eax
  403dce:	e9 de 00 00 00       	jmpq   403eb1 <__ctype_b_loc@plt+0x1e91>
  403dd3:	b8 eb 09 42 00       	mov    $0x4209eb,%eax
  403dd8:	e9 d4 00 00 00       	jmpq   403eb1 <__ctype_b_loc@plt+0x1e91>
  403ddd:	b8 ee 09 42 00       	mov    $0x4209ee,%eax
  403de2:	e9 ca 00 00 00       	jmpq   403eb1 <__ctype_b_loc@plt+0x1e91>
  403de7:	b8 f1 09 42 00       	mov    $0x4209f1,%eax
  403dec:	e9 c0 00 00 00       	jmpq   403eb1 <__ctype_b_loc@plt+0x1e91>
  403df1:	b8 f4 09 42 00       	mov    $0x4209f4,%eax
  403df6:	e9 b6 00 00 00       	jmpq   403eb1 <__ctype_b_loc@plt+0x1e91>
  403dfb:	b8 f7 09 42 00       	mov    $0x4209f7,%eax
  403e00:	e9 ac 00 00 00       	jmpq   403eb1 <__ctype_b_loc@plt+0x1e91>
  403e05:	b8 fc 09 42 00       	mov    $0x4209fc,%eax
  403e0a:	e9 a2 00 00 00       	jmpq   403eb1 <__ctype_b_loc@plt+0x1e91>
  403e0f:	b8 fb 09 42 00       	mov    $0x4209fb,%eax
  403e14:	e9 98 00 00 00       	jmpq   403eb1 <__ctype_b_loc@plt+0x1e91>
  403e19:	b8 00 0a 42 00       	mov    $0x420a00,%eax
  403e1e:	e9 8e 00 00 00       	jmpq   403eb1 <__ctype_b_loc@plt+0x1e91>
  403e23:	b8 03 0a 42 00       	mov    $0x420a03,%eax
  403e28:	e9 84 00 00 00       	jmpq   403eb1 <__ctype_b_loc@plt+0x1e91>
  403e2d:	b8 06 0a 42 00       	mov    $0x420a06,%eax
  403e32:	eb 7d                	jmp    403eb1 <__ctype_b_loc@plt+0x1e91>
  403e34:	4c 89 4c 24 20       	mov    %r9,0x20(%rsp)
  403e39:	44 8b 0d 80 54 22 00 	mov    0x225480(%rip),%r9d        # 6292c0 <_fini@@Base+0x20d09c>
  403e40:	8b 05 7e 54 22 00    	mov    0x22547e(%rip),%eax        # 6292c4 <_fini@@Base+0x20d0a0>
  403e46:	89 04 24             	mov    %eax,(%rsp)
  403e49:	89 7c 24 18          	mov    %edi,0x18(%rsp)
  403e4d:	31 ff                	xor    %edi,%edi
  403e4f:	31 f6                	xor    %esi,%esi
  403e51:	eb 24                	jmp    403e77 <__ctype_b_loc@plt+0x1e57>
  403e53:	49 8b 43 f8          	mov    -0x8(%r11),%rax
  403e57:	eb 58                	jmp    403eb1 <__ctype_b_loc@plt+0x1e91>
  403e59:	49 8b 33             	mov    (%r11),%rsi
  403e5c:	4c 89 4c 24 20       	mov    %r9,0x20(%rsp)
  403e61:	44 8b 0d 58 54 22 00 	mov    0x225458(%rip),%r9d        # 6292c0 <_fini@@Base+0x20d09c>
  403e68:	8b 05 56 54 22 00    	mov    0x225456(%rip),%eax        # 6292c4 <_fini@@Base+0x20d0a0>
  403e6e:	89 04 24             	mov    %eax,(%rsp)
  403e71:	89 7c 24 18          	mov    %edi,0x18(%rsp)
  403e75:	31 ff                	xor    %edi,%edi
  403e77:	89 54 24 1c          	mov    %edx,0x1c(%rsp)
  403e7b:	31 d2                	xor    %edx,%edx
  403e7d:	31 c9                	xor    %ecx,%ecx
  403e7f:	0f 57 c0             	xorps  %xmm0,%xmm0
  403e82:	44 89 44 24 14       	mov    %r8d,0x14(%rsp)
  403e87:	45 31 c0             	xor    %r8d,%r8d
  403e8a:	4d 89 d4             	mov    %r10,%r12
  403e8d:	4c 89 5c 24 28       	mov    %r11,0x28(%rsp)
  403e92:	e8 b9 66 00 00       	callq  40a550 <__ctype_b_loc@plt+0x8530>
  403e97:	44 8b 44 24 14       	mov    0x14(%rsp),%r8d
  403e9c:	8b 7c 24 18          	mov    0x18(%rsp),%edi
  403ea0:	8b 54 24 1c          	mov    0x1c(%rsp),%edx
  403ea4:	4c 8b 5c 24 28       	mov    0x28(%rsp),%r11
  403ea9:	4d 89 e2             	mov    %r12,%r10
  403eac:	4c 8b 4c 24 20       	mov    0x20(%rsp),%r9
  403eb1:	49 8d 0c 6a          	lea    (%r10,%rbp,2),%rcx
  403eb5:	49 8d 74 eb 08       	lea    0x8(%r11,%rbp,8),%rsi
  403eba:	49 89 44 eb 08       	mov    %rax,0x8(%r11,%rbp,8)
  403ebf:	44 89 43 10          	mov    %r8d,0x10(%rbx)
  403ec3:	89 7b 14             	mov    %edi,0x14(%rbx)
  403ec6:	89 53 18             	mov    %edx,0x18(%rbx)
  403ec9:	44 89 73 1c          	mov    %r14d,0x1c(%rbx)
  403ecd:	48 8d 43 10          	lea    0x10(%rbx),%rax
  403ed1:	41 0f b6 97 70 00 42 	movzbl 0x420070(%r15),%edx
  403ed8:	00 
  403ed9:	0f bf bc 12 08 01 42 	movswl 0x420108(%rdx,%rdx,1),%edi
  403ee0:	00 
  403ee1:	41 0f bf 2c 6a       	movswl (%r10,%rbp,2),%ebp
  403ee6:	01 ef                	add    %ebp,%edi
  403ee8:	81 ff 2a 0a 00 00    	cmp    $0xa2a,%edi
  403eee:	77 20                	ja     403f10 <__ctype_b_loc@plt+0x1ef0>
  403ef0:	48 63 ff             	movslq %edi,%rdi
  403ef3:	66 39 ac 3f 10 d2 41 	cmp    %bp,0x41d210(%rdi,%rdi,1)
  403efa:	00 
  403efb:	75 13                	jne    403f10 <__ctype_b_loc@plt+0x1ef0>
  403efd:	44 0f b7 a4 3f 70 e6 	movzwl 0x41e670(%rdi,%rdi,1),%r12d
  403f04:	41 00 
  403f06:	e9 a5 e2 ff ff       	jmpq   4021b0 <__ctype_b_loc@plt+0x190>
  403f0b:	0f 1f 44 00 00       	nopl   0x0(%rax,%rax,1)
  403f10:	44 0f bf a4 12 e8 01 	movswl 0x4201e8(%rdx,%rdx,1),%r12d
  403f17:	42 00 
  403f19:	e9 92 e2 ff ff       	jmpq   4021b0 <__ctype_b_loc@plt+0x190>
  403f1e:	89 54 24 1c          	mov    %edx,0x1c(%rsp)
  403f22:	49 8b 53 f0          	mov    -0x10(%r11),%rdx
  403f26:	49 8b 33             	mov    (%r11),%rsi
  403f29:	4c 89 4c 24 20       	mov    %r9,0x20(%rsp)
  403f2e:	44 8b 0d 8b 53 22 00 	mov    0x22538b(%rip),%r9d        # 6292c0 <_fini@@Base+0x20d09c>
  403f35:	8b 05 89 53 22 00    	mov    0x225389(%rip),%eax        # 6292c4 <_fini@@Base+0x20d0a0>
  403f3b:	89 04 24             	mov    %eax,(%rsp)
  403f3e:	89 7c 24 18          	mov    %edi,0x18(%rsp)
  403f42:	31 ff                	xor    %edi,%edi
  403f44:	e9 34 ff ff ff       	jmpq   403e7d <__ctype_b_loc@plt+0x1e5d>
  403f49:	bd 01 00 00 00       	mov    $0x1,%ebp
  403f4e:	48 8d 84 24 e0 00 00 	lea    0xe0(%rsp),%rax
  403f55:	00 
  403f56:	49 39 c5             	cmp    %rax,%r13
  403f59:	4d 89 ef             	mov    %r13,%r15
  403f5c:	74 08                	je     403f66 <__ctype_b_loc@plt+0x1f46>
  403f5e:	4c 89 ff             	mov    %r15,%rdi
  403f61:	e8 aa db ff ff       	callq  401b10 <free@plt>
  403f66:	48 8d 44 24 60       	lea    0x60(%rsp),%rax
  403f6b:	48 8b 4c 24 38       	mov    0x38(%rsp),%rcx
  403f70:	48 39 c1             	cmp    %rax,%rcx
  403f73:	48 89 cf             	mov    %rcx,%rdi
  403f76:	74 05                	je     403f7d <__ctype_b_loc@plt+0x1f5d>
  403f78:	e8 93 db ff ff       	callq  401b10 <free@plt>
  403f7d:	89 e8                	mov    %ebp,%eax
  403f7f:	48 81 c4 38 15 00 00 	add    $0x1538,%rsp
  403f86:	5b                   	pop    %rbx
  403f87:	41 5c                	pop    %r12
  403f89:	41 5d                	pop    %r13
  403f8b:	41 5e                	pop    %r14
  403f8d:	41 5f                	pop    %r15
  403f8f:	5d                   	pop    %rbp
  403f90:	c3                   	retq   
  403f91:	31 ed                	xor    %ebp,%ebp
  403f93:	eb b9                	jmp    403f4e <__ctype_b_loc@plt+0x1f2e>
  403f95:	bd 01 00 00 00       	mov    $0x1,%ebp
  403f9a:	eb c2                	jmp    403f5e <__ctype_b_loc@plt+0x1f3e>
  403f9c:	48 8d 44 24 60       	lea    0x60(%rsp),%rax
  403fa1:	48 89 44 24 38       	mov    %rax,0x38(%rsp)
  403fa6:	48 c7 44 24 48 80 00 	movq   $0x80,0x48(%rsp)
  403fad:	00 00 
  403faf:	bf 09 0a 42 00       	mov    $0x420a09,%edi
  403fb4:	e8 b7 03 00 00       	callq  404370 <__ctype_b_loc@plt+0x2350>
  403fb9:	bf 16 0a 42 00       	mov    $0x420a16,%edi
  403fbe:	e8 ad 03 00 00       	callq  404370 <__ctype_b_loc@plt+0x2350>
  403fc3:	bd 02 00 00 00       	mov    $0x2,%ebp
  403fc8:	eb 84                	jmp    403f4e <__ctype_b_loc@plt+0x1f2e>
  403fca:	66 0f 1f 44 00 00    	nopw   0x0(%rax,%rax,1)
  403fd0:	55                   	push   %rbp
  403fd1:	41 57                	push   %r15
  403fd3:	41 56                	push   %r14
  403fd5:	41 55                	push   %r13
  403fd7:	41 54                	push   %r12
  403fd9:	53                   	push   %rbx
  403fda:	48 83 ec 38          	sub    $0x38,%rsp
  403fde:	89 cd                	mov    %ecx,%ebp
  403fe0:	49 89 d5             	mov    %rdx,%r13
  403fe3:	49 89 f6             	mov    %rsi,%r14
  403fe6:	48 63 c5             	movslq %ebp,%rax
  403fe9:	48 8b 1c c5 70 03 42 	mov    0x420370(,%rax,8),%rbx
  403ff0:	00 
  403ff1:	80 3b 22             	cmpb   $0x22,(%rbx)
  403ff4:	48 89 3c 24          	mov    %rdi,(%rsp)
  403ff8:	75 55                	jne    40404f <__ctype_b_loc@plt+0x202f>
  403ffa:	45 31 e4             	xor    %r12d,%r12d
  403ffd:	48 89 d9             	mov    %rbx,%rcx
  404000:	eb 14                	jmp    404016 <__ctype_b_loc@plt+0x1ff6>
  404002:	66 66 66 66 66 2e 0f 	data16 data16 data16 data16 nopw %cs:0x0(%rax,%rax,1)
  404009:	1f 84 00 00 00 00 00 
  404010:	49 ff c4             	inc    %r12
  404013:	48 89 c1             	mov    %rax,%rcx
  404016:	48 8d 41 01          	lea    0x1(%rcx),%rax
  40401a:	0f be 51 01          	movsbl 0x1(%rcx),%edx
  40401e:	83 fa 5b             	cmp    $0x5b,%edx
  404021:	7e 1d                	jle    404040 <__ctype_b_loc@plt+0x2020>
  404023:	83 fa 5c             	cmp    $0x5c,%edx
  404026:	75 e8                	jne    404010 <__ctype_b_loc@plt+0x1ff0>
  404028:	80 79 02 5c          	cmpb   $0x5c,0x2(%rcx)
  40402c:	75 21                	jne    40404f <__ctype_b_loc@plt+0x202f>
  40402e:	48 83 c1 02          	add    $0x2,%rcx
  404032:	48 89 c8             	mov    %rcx,%rax
  404035:	eb d9                	jmp    404010 <__ctype_b_loc@plt+0x1ff0>
  404037:	66 0f 1f 84 00 00 00 	nopw   0x0(%rax,%rax,1)
  40403e:	00 00 
  404040:	83 fa 22             	cmp    $0x22,%edx
  404043:	74 15                	je     40405a <__ctype_b_loc@plt+0x203a>
  404045:	83 fa 27             	cmp    $0x27,%edx
  404048:	74 05                	je     40404f <__ctype_b_loc@plt+0x202f>
  40404a:	83 fa 2c             	cmp    $0x2c,%edx
  40404d:	75 c1                	jne    404010 <__ctype_b_loc@plt+0x1ff0>
  40404f:	48 89 df             	mov    %rbx,%rdi
  404052:	e8 19 dc ff ff       	callq  401c70 <strlen@plt>
  404057:	49 89 c4             	mov    %rax,%r12
  40405a:	45 31 ff             	xor    %r15d,%r15d
  40405d:	83 fd fe             	cmp    $0xfffffffe,%ebp
  404060:	0f 84 2c 01 00 00    	je     404192 <__ctype_b_loc@plt+0x2172>
  404066:	49 0f bf 45 00       	movswq 0x0(%r13),%rax
  40406b:	0f bf 84 00 70 cc 41 	movswl 0x41cc70(%rax,%rax,1),%eax
  404072:	00 
  404073:	3d 15 fe ff ff       	cmp    $0xfffffe15,%eax
  404078:	48 89 5c 24 10       	mov    %rbx,0x10(%rsp)
  40407d:	41 bf 01 00 00 00    	mov    $0x1,%r15d
  404083:	0f 84 09 01 00 00    	je     404192 <__ctype_b_loc@plt+0x2172>
  404089:	89 c2                	mov    %eax,%edx
  40408b:	f7 da                	neg    %edx
  40408d:	31 c9                	xor    %ecx,%ecx
  40408f:	66 85 c0             	test   %ax,%ax
  404092:	0f 48 ca             	cmovs  %edx,%ecx
  404095:	be 2b 0a 00 00       	mov    $0xa2b,%esi
  40409a:	29 c6                	sub    %eax,%esi
  40409c:	83 fe 55             	cmp    $0x55,%esi
  40409f:	ba 54 00 00 00       	mov    $0x54,%edx
  4040a4:	0f 4c d6             	cmovl  %esi,%edx
  4040a7:	39 d1                	cmp    %edx,%ecx
  4040a9:	0f 8d e3 00 00 00    	jge    404192 <__ctype_b_loc@plt+0x2172>
  4040af:	48 63 d9             	movslq %ecx,%rbx
  4040b2:	48 98                	cltq   
  4040b4:	48 89 44 24 08       	mov    %rax,0x8(%rsp)
  4040b9:	4c 63 ea             	movslq %edx,%r13
  4040bc:	41 bf 01 00 00 00    	mov    $0x1,%r15d
  4040c2:	4c 89 e5             	mov    %r12,%rbp
  4040c5:	66 66 2e 0f 1f 84 00 	data16 nopw %cs:0x0(%rax,%rax,1)
  4040cc:	00 00 00 00 
  4040d0:	83 fb 01             	cmp    $0x1,%ebx
  4040d3:	0f 84 98 00 00 00    	je     404171 <__ctype_b_loc@plt+0x2151>
  4040d9:	48 8b 44 24 08       	mov    0x8(%rsp),%rax
  4040de:	48 8d 04 03          	lea    (%rbx,%rax,1),%rax
  4040e2:	0f bf 84 00 10 d2 41 	movswl 0x41d210(%rax,%rax,1),%eax
  4040e9:	00 
  4040ea:	39 d8                	cmp    %ebx,%eax
  4040ec:	0f 85 7f 00 00 00    	jne    404171 <__ctype_b_loc@plt+0x2151>
  4040f2:	41 83 ff 05          	cmp    $0x5,%r15d
  4040f6:	0f 84 90 00 00 00    	je     40418c <__ctype_b_loc@plt+0x216c>
  4040fc:	48 8b 3c dd 70 03 42 	mov    0x420370(,%rbx,8),%rdi
  404103:	00 
  404104:	49 63 c7             	movslq %r15d,%rax
  404107:	48 89 7c c4 10       	mov    %rdi,0x10(%rsp,%rax,8)
  40410c:	80 3f 22             	cmpb   $0x22,(%rdi)
  40410f:	75 4f                	jne    404160 <__ctype_b_loc@plt+0x2140>
  404111:	31 c0                	xor    %eax,%eax
  404113:	48 89 fa             	mov    %rdi,%rdx
  404116:	eb 0e                	jmp    404126 <__ctype_b_loc@plt+0x2106>
  404118:	0f 1f 84 00 00 00 00 	nopl   0x0(%rax,%rax,1)
  40411f:	00 
  404120:	48 ff c0             	inc    %rax
  404123:	48 89 ca             	mov    %rcx,%rdx
  404126:	48 8d 4a 01          	lea    0x1(%rdx),%rcx
  40412a:	0f be 72 01          	movsbl 0x1(%rdx),%esi
  40412e:	83 fe 5b             	cmp    $0x5b,%esi
  404131:	7e 1d                	jle    404150 <__ctype_b_loc@plt+0x2130>
  404133:	83 fe 5c             	cmp    $0x5c,%esi
  404136:	75 e8                	jne    404120 <__ctype_b_loc@plt+0x2100>
  404138:	80 7a 02 5c          	cmpb   $0x5c,0x2(%rdx)
  40413c:	75 22                	jne    404160 <__ctype_b_loc@plt+0x2140>
  40413e:	48 83 c2 02          	add    $0x2,%rdx
  404142:	48 89 d1             	mov    %rdx,%rcx
  404145:	eb d9                	jmp    404120 <__ctype_b_loc@plt+0x2100>
  404147:	66 0f 1f 84 00 00 00 	nopw   0x0(%rax,%rax,1)
  40414e:	00 00 
  404150:	83 fe 22             	cmp    $0x22,%esi
  404153:	74 10                	je     404165 <__ctype_b_loc@plt+0x2145>
  404155:	83 fe 27             	cmp    $0x27,%esi
  404158:	74 06                	je     404160 <__ctype_b_loc@plt+0x2140>
  40415a:	83 fe 2c             	cmp    $0x2c,%esi
  40415d:	75 c1                	jne    404120 <__ctype_b_loc@plt+0x2100>
  40415f:	90                   	nop
  404160:	e8 0b db ff ff       	callq  401c70 <strlen@plt>
  404165:	48 01 c5             	add    %rax,%rbp
  404168:	0f 82 e5 01 00 00    	jb     404353 <__ctype_b_loc@plt+0x2333>
  40416e:	41 ff c7             	inc    %r15d
  404171:	48 ff c3             	inc    %rbx
  404174:	4c 39 eb             	cmp    %r13,%rbx
  404177:	0f 8c 53 ff ff ff    	jl     4040d0 <__ctype_b_loc@plt+0x20b0>
  40417d:	41 83 ff 05          	cmp    $0x5,%r15d
  404181:	0f 87 d3 01 00 00    	ja     40435a <__ctype_b_loc@plt+0x233a>
  404187:	49 89 ec             	mov    %rbp,%r12
  40418a:	eb 06                	jmp    404192 <__ctype_b_loc@plt+0x2172>
  40418c:	41 bf 01 00 00 00    	mov    $0x1,%r15d
  404192:	49 63 c7             	movslq %r15d,%rax
  404195:	48 8b 1c c5 70 09 42 	mov    0x420970(,%rax,8),%rbx
  40419c:	00 
  40419d:	4c 89 e5             	mov    %r12,%rbp
  4041a0:	48 89 df             	mov    %rbx,%rdi
  4041a3:	e8 c8 da ff ff       	callq  401c70 <strlen@plt>
  4041a8:	48 89 c1             	mov    %rax,%rcx
  4041ab:	48 01 e9             	add    %rbp,%rcx
  4041ae:	48 0f 42 cd          	cmovb  %rbp,%rcx
  4041b2:	b8 02 00 00 00       	mov    $0x2,%eax
  4041b7:	0f 82 87 01 00 00    	jb     404344 <__ctype_b_loc@plt+0x2324>
  4041bd:	48 8b 14 24          	mov    (%rsp),%rdx
  4041c1:	48 39 0a             	cmp    %rcx,(%rdx)
  4041c4:	73 1f                	jae    4041e5 <__ctype_b_loc@plt+0x21c5>
  4041c6:	48 8d 04 09          	lea    (%rcx,%rcx,1),%rax
  4041ca:	48 39 c1             	cmp    %rax,%rcx
  4041cd:	48 c7 c1 ff ff ff ff 	mov    $0xffffffffffffffff,%rcx
  4041d4:	48 0f 46 c8          	cmovbe %rax,%rcx
  4041d8:	48 89 0a             	mov    %rcx,(%rdx)
  4041db:	b8 01 00 00 00       	mov    $0x1,%eax
  4041e0:	e9 5f 01 00 00       	jmpq   404344 <__ctype_b_loc@plt+0x2324>
  4041e5:	45 85 ff             	test   %r15d,%r15d
  4041e8:	0f 8e 2e 01 00 00    	jle    40431c <__ctype_b_loc@plt+0x22fc>
  4041ee:	4d 63 ff             	movslq %r15d,%r15
  4041f1:	45 31 e4             	xor    %r12d,%r12d
  4041f4:	4c 89 f1             	mov    %r14,%rcx
  4041f7:	eb 0d                	jmp    404206 <__ctype_b_loc@plt+0x21e6>
  4041f9:	0f 1f 80 00 00 00 00 	nopl   0x0(%rax)
  404200:	48 ff c3             	inc    %rbx
  404203:	48 ff c1             	inc    %rcx
  404206:	0f b6 03             	movzbl (%rbx),%eax
  404209:	88 01                	mov    %al,(%rcx)
  40420b:	3c 25                	cmp    $0x25,%al
  40420d:	74 11                	je     404220 <__ctype_b_loc@plt+0x2200>
  40420f:	84 c0                	test   %al,%al
  404211:	75 ed                	jne    404200 <__ctype_b_loc@plt+0x21e0>
  404213:	e9 2a 01 00 00       	jmpq   404342 <__ctype_b_loc@plt+0x2322>
  404218:	0f 1f 84 00 00 00 00 	nopl   0x0(%rax,%rax,1)
  40421f:	00 
  404220:	80 7b 01 73          	cmpb   $0x73,0x1(%rbx)
  404224:	75 da                	jne    404200 <__ctype_b_loc@plt+0x21e0>
  404226:	4a 8b 7c e4 10       	mov    0x10(%rsp,%r12,8),%rdi
  40422b:	49 ff c4             	inc    %r12
  40422e:	80 3f 22             	cmpb   $0x22,(%rdi)
  404231:	0f 85 8f 00 00 00    	jne    4042c6 <__ctype_b_loc@plt+0x22a6>
  404237:	31 c0                	xor    %eax,%eax
  404239:	48 89 fe             	mov    %rdi,%rsi
  40423c:	48 85 c9             	test   %rcx,%rcx
  40423f:	75 18                	jne    404259 <__ctype_b_loc@plt+0x2239>
  404241:	eb 53                	jmp    404296 <__ctype_b_loc@plt+0x2276>
  404243:	66 66 66 66 2e 0f 1f 	data16 data16 data16 nopw %cs:0x0(%rax,%rax,1)
  40424a:	84 00 00 00 00 00 
  404250:	88 14 01             	mov    %dl,(%rcx,%rax,1)
  404253:	48 ff c0             	inc    %rax
  404256:	4c 89 c6             	mov    %r8,%rsi
  404259:	4c 8d 46 01          	lea    0x1(%rsi),%r8
  40425d:	0f b6 56 01          	movzbl 0x1(%rsi),%edx
  404261:	0f be ea             	movsbl %dl,%ebp
  404264:	83 fd 5b             	cmp    $0x5b,%ebp
  404267:	7e 16                	jle    40427f <__ctype_b_loc@plt+0x225f>
  404269:	83 fd 5c             	cmp    $0x5c,%ebp
  40426c:	75 e2                	jne    404250 <__ctype_b_loc@plt+0x2230>
  40426e:	80 7e 02 5c          	cmpb   $0x5c,0x2(%rsi)
  404272:	75 57                	jne    4042cb <__ctype_b_loc@plt+0x22ab>
  404274:	48 83 c6 02          	add    $0x2,%rsi
  404278:	b2 5c                	mov    $0x5c,%dl
  40427a:	49 89 f0             	mov    %rsi,%r8
  40427d:	eb d1                	jmp    404250 <__ctype_b_loc@plt+0x2230>
  40427f:	83 fd 22             	cmp    $0x22,%ebp
  404282:	74 71                	je     4042f5 <__ctype_b_loc@plt+0x22d5>
  404284:	83 fd 27             	cmp    $0x27,%ebp
  404287:	74 42                	je     4042cb <__ctype_b_loc@plt+0x22ab>
  404289:	83 fd 2c             	cmp    $0x2c,%ebp
  40428c:	75 c2                	jne    404250 <__ctype_b_loc@plt+0x2230>
  40428e:	eb 3b                	jmp    4042cb <__ctype_b_loc@plt+0x22ab>
  404290:	48 ff c0             	inc    %rax
  404293:	48 89 d6             	mov    %rdx,%rsi
  404296:	48 8d 56 01          	lea    0x1(%rsi),%rdx
  40429a:	0f be 6e 01          	movsbl 0x1(%rsi),%ebp
  40429e:	83 fd 5b             	cmp    $0x5b,%ebp
  4042a1:	7e 14                	jle    4042b7 <__ctype_b_loc@plt+0x2297>
  4042a3:	83 fd 5c             	cmp    $0x5c,%ebp
  4042a6:	75 e8                	jne    404290 <__ctype_b_loc@plt+0x2270>
  4042a8:	80 7e 02 5c          	cmpb   $0x5c,0x2(%rsi)
  4042ac:	75 18                	jne    4042c6 <__ctype_b_loc@plt+0x22a6>
  4042ae:	48 83 c6 02          	add    $0x2,%rsi
  4042b2:	48 89 f2             	mov    %rsi,%rdx
  4042b5:	eb d9                	jmp    404290 <__ctype_b_loc@plt+0x2270>
  4042b7:	83 fd 22             	cmp    $0x22,%ebp
  4042ba:	74 43                	je     4042ff <__ctype_b_loc@plt+0x22df>
  4042bc:	83 fd 27             	cmp    $0x27,%ebp
  4042bf:	74 05                	je     4042c6 <__ctype_b_loc@plt+0x22a6>
  4042c1:	83 fd 2c             	cmp    $0x2c,%ebp
  4042c4:	75 ca                	jne    404290 <__ctype_b_loc@plt+0x2270>
  4042c6:	48 85 c9             	test   %rcx,%rcx
  4042c9:	74 20                	je     4042eb <__ctype_b_loc@plt+0x22cb>
  4042cb:	31 c0                	xor    %eax,%eax
  4042cd:	0f 1f 00             	nopl   (%rax)
  4042d0:	0f b6 14 07          	movzbl (%rdi,%rax,1),%edx
  4042d4:	88 14 01             	mov    %dl,(%rcx,%rax,1)
  4042d7:	48 ff c0             	inc    %rax
  4042da:	84 d2                	test   %dl,%dl
  4042dc:	75 f2                	jne    4042d0 <__ctype_b_loc@plt+0x22b0>
  4042de:	48 8d 44 01 ff       	lea    -0x1(%rcx,%rax,1),%rax
  4042e3:	48 29 c8             	sub    %rcx,%rax
  4042e6:	49 89 ce             	mov    %rcx,%r14
  4042e9:	eb 21                	jmp    40430c <__ctype_b_loc@plt+0x22ec>
  4042eb:	e8 80 d9 ff ff       	callq  401c70 <strlen@plt>
  4042f0:	45 31 f6             	xor    %r14d,%r14d
  4042f3:	eb 17                	jmp    40430c <__ctype_b_loc@plt+0x22ec>
  4042f5:	49 89 ce             	mov    %rcx,%r14
  4042f8:	48 85 c9             	test   %rcx,%rcx
  4042fb:	75 0a                	jne    404307 <__ctype_b_loc@plt+0x22e7>
  4042fd:	eb 0d                	jmp    40430c <__ctype_b_loc@plt+0x22ec>
  4042ff:	45 31 f6             	xor    %r14d,%r14d
  404302:	48 85 c9             	test   %rcx,%rcx
  404305:	74 05                	je     40430c <__ctype_b_loc@plt+0x22ec>
  404307:	41 c6 04 06 00       	movb   $0x0,(%r14,%rax,1)
  40430c:	49 01 c6             	add    %rax,%r14
  40430f:	48 83 c3 02          	add    $0x2,%rbx
  404313:	4d 39 fc             	cmp    %r15,%r12
  404316:	0f 8c d8 fe ff ff    	jl     4041f4 <__ctype_b_loc@plt+0x21d4>
  40431c:	8a 0b                	mov    (%rbx),%cl
  40431e:	41 88 0e             	mov    %cl,(%r14)
  404321:	31 c0                	xor    %eax,%eax
  404323:	84 c9                	test   %cl,%cl
  404325:	74 1d                	je     404344 <__ctype_b_loc@plt+0x2324>
  404327:	49 ff c6             	inc    %r14
  40432a:	48 ff c3             	inc    %rbx
  40432d:	0f 1f 00             	nopl   (%rax)
  404330:	0f b6 0b             	movzbl (%rbx),%ecx
  404333:	41 88 0e             	mov    %cl,(%r14)
  404336:	49 ff c6             	inc    %r14
  404339:	48 ff c3             	inc    %rbx
  40433c:	84 c9                	test   %cl,%cl
  40433e:	75 f0                	jne    404330 <__ctype_b_loc@plt+0x2310>
  404340:	eb 02                	jmp    404344 <__ctype_b_loc@plt+0x2324>
  404342:	31 c0                	xor    %eax,%eax
  404344:	48 83 c4 38          	add    $0x38,%rsp
  404348:	5b                   	pop    %rbx
  404349:	41 5c                	pop    %r12
  40434b:	41 5d                	pop    %r13
  40434d:	41 5e                	pop    %r14
  40434f:	41 5f                	pop    %r15
  404351:	5d                   	pop    %rbp
  404352:	c3                   	retq   
  404353:	b8 02 00 00 00       	mov    $0x2,%eax
  404358:	eb ea                	jmp    404344 <__ctype_b_loc@plt+0x2324>
  40435a:	31 db                	xor    %ebx,%ebx
  40435c:	e9 3f fe ff ff       	jmpq   4041a0 <__ctype_b_loc@plt+0x2180>
  404361:	66 66 66 66 66 66 2e 	data16 data16 data16 data16 data16 nopw %cs:0x0(%rax,%rax,1)
  404368:	0f 1f 84 00 00 00 00 
  40436f:	00 
  404370:	55                   	push   %rbp
  404371:	41 57                	push   %r15
  404373:	41 56                	push   %r14
  404375:	53                   	push   %rbx
  404376:	48 81 ec e8 03 00 00 	sub    $0x3e8,%rsp
  40437d:	49 89 ff             	mov    %rdi,%r15
  404380:	8b 3d 3a 4f 22 00    	mov    0x224f3a(%rip),%edi        # 6292c0 <_fini@@Base+0x20d09c>
  404386:	8b 35 38 4f 22 00    	mov    0x224f38(%rip),%esi        # 6292c4 <_fini@@Base+0x20d0a0>
  40438c:	e8 df 75 00 00       	callq  40b970 <__ctype_b_loc@plt+0x9950>
  404391:	49 89 c6             	mov    %rax,%r14
  404394:	4c 89 f7             	mov    %r14,%rdi
  404397:	e8 b4 75 00 00       	callq  40b950 <__ctype_b_loc@plt+0x9930>
  40439c:	48 8b 3d 35 50 22 00 	mov    0x225035(%rip),%rdi        # 6293d8 <stderr@@GLIBC_2.2.5+0x18>
  4043a3:	48 85 ff             	test   %rdi,%rdi
  4043a6:	0f 84 98 00 00 00    	je     404444 <__ctype_b_loc@plt+0x2424>
  4043ac:	e8 1f d9 ff ff       	callq  401cd0 <rewind@plt>
  4043b1:	48 8b 15 20 50 22 00 	mov    0x225020(%rip),%rdx        # 6293d8 <stderr@@GLIBC_2.2.5+0x18>
  4043b8:	48 89 e7             	mov    %rsp,%rdi
  4043bb:	be e8 03 00 00       	mov    $0x3e8,%esi
  4043c0:	e8 1b da ff ff       	callq  401de0 <fgets@plt>
  4043c5:	48 85 c0             	test   %rax,%rax
  4043c8:	74 7a                	je     404444 <__ctype_b_loc@plt+0x2424>
  4043ca:	bd 01 00 00 00       	mov    $0x1,%ebp
  4043cf:	48 89 e3             	mov    %rsp,%rbx
  4043d2:	66 66 66 66 66 2e 0f 	data16 data16 data16 data16 nopw %cs:0x0(%rax,%rax,1)
  4043d9:	1f 84 00 00 00 00 00 
  4043e0:	3b 2d da 4e 22 00    	cmp    0x224eda(%rip),%ebp        # 6292c0 <_fini@@Base+0x20d09c>
  4043e6:	75 41                	jne    404429 <__ctype_b_loc@plt+0x2409>
  4043e8:	48 8b 3d d1 4f 22 00 	mov    0x224fd1(%rip),%rdi        # 6293c0 <stderr@@GLIBC_2.2.5>
  4043ef:	be 27 0a 42 00       	mov    $0x420a27,%esi
  4043f4:	ba db 0a 42 00       	mov    $0x420adb,%edx
  4043f9:	31 c0                	xor    %eax,%eax
  4043fb:	48 89 d9             	mov    %rbx,%rcx
  4043fe:	e8 2d 60 00 00       	callq  40a430 <__ctype_b_loc@plt+0x8410>
  404403:	48 8b 3d b6 4f 22 00 	mov    0x224fb6(%rip),%rdi        # 6293c0 <stderr@@GLIBC_2.2.5>
  40440a:	8b 0d b4 4e 22 00    	mov    0x224eb4(%rip),%ecx        # 6292c4 <_fini@@Base+0x20d0a0>
  404410:	ff c1                	inc    %ecx
  404412:	be 2d 0a 42 00       	mov    $0x420a2d,%esi
  404417:	ba 35 0a 42 00       	mov    $0x420a35,%edx
  40441c:	41 b8 a6 09 42 00    	mov    $0x4209a6,%r8d
  404422:	31 c0                	xor    %eax,%eax
  404424:	e8 07 60 00 00       	callq  40a430 <__ctype_b_loc@plt+0x8410>
  404429:	ff c5                	inc    %ebp
  40442b:	48 8b 15 a6 4f 22 00 	mov    0x224fa6(%rip),%rdx        # 6293d8 <stderr@@GLIBC_2.2.5+0x18>
  404432:	be e8 03 00 00       	mov    $0x3e8,%esi
  404437:	48 89 df             	mov    %rbx,%rdi
  40443a:	e8 a1 d9 ff ff       	callq  401de0 <fgets@plt>
  40443f:	48 85 c0             	test   %rax,%rax
  404442:	75 9c                	jne    4043e0 <__ctype_b_loc@plt+0x23c0>
  404444:	4c 89 ff             	mov    %r15,%rdi
  404447:	e8 24 d8 ff ff       	callq  401c70 <strlen@plt>
  40444c:	49 8d 77 0e          	lea    0xe(%r15),%rsi
  404450:	48 83 f8 0d          	cmp    $0xd,%rax
  404454:	49 0f 46 f7          	cmovbe %r15,%rsi
  404458:	bf 3a 0a 42 00       	mov    $0x420a3a,%edi
  40445d:	31 c0                	xor    %eax,%eax
  40445f:	e8 cc 71 00 00       	callq  40b630 <__ctype_b_loc@plt+0x9610>
  404464:	4c 89 f7             	mov    %r14,%rdi
  404467:	48 89 c6             	mov    %rax,%rsi
  40446a:	e8 11 78 00 00       	callq  40bc80 <__ctype_b_loc@plt+0x9c60>
  40446f:	48 81 c4 e8 03 00 00 	add    $0x3e8,%rsp
  404476:	5b                   	pop    %rbx
  404477:	41 5e                	pop    %r14
  404479:	41 5f                	pop    %r15
  40447b:	5d                   	pop    %rbp
  40447c:	c3                   	retq   
  40447d:	0f 1f 00             	nopl   (%rax)
  404480:	55                   	push   %rbp
  404481:	41 56                	push   %r14
  404483:	53                   	push   %rbx
  404484:	89 f5                	mov    %esi,%ebp
  404486:	49 89 fe             	mov    %rdi,%r14
  404489:	48 8b 05 f0 4f 22 00 	mov    0x224ff0(%rip),%rax        # 629480 <stderr@@GLIBC_2.2.5+0xc0>
  404490:	80 78 70 00          	cmpb   $0x0,0x70(%rax)
  404494:	74 46                	je     4044dc <__ctype_b_loc@plt+0x24bc>
  404496:	80 78 73 00          	cmpb   $0x0,0x73(%rax)
  40449a:	74 09                	je     4044a5 <__ctype_b_loc@plt+0x2485>
  40449c:	48 8b 78 78          	mov    0x78(%rax),%rdi
  4044a0:	e8 db d7 ff ff       	callq  401c80 <read_history@plt>
  4044a5:	bf 46 0a 42 00       	mov    $0x420a46,%edi
  4044aa:	e8 b1 d8 ff ff       	callq  401d60 <readline@plt>
  4044af:	48 89 c3             	mov    %rax,%rbx
  4044b2:	48 85 db             	test   %rbx,%rbx
  4044b5:	0f 84 a0 00 00 00    	je     40455b <__ctype_b_loc@plt+0x253b>
  4044bb:	48 89 df             	mov    %rbx,%rdi
  4044be:	e8 ad d7 ff ff       	callq  401c70 <strlen@plt>
  4044c3:	83 c5 fd             	add    $0xfffffffd,%ebp
  4044c6:	39 e8                	cmp    %ebp,%eax
  4044c8:	0f 8e 94 00 00 00    	jle    404562 <__ctype_b_loc@plt+0x2542>
  4044ce:	31 db                	xor    %ebx,%ebx
  4044d0:	bf 5c 41 42 00       	mov    $0x42415c,%edi
  4044d5:	be 49 0a 42 00       	mov    $0x420a49,%esi
  4044da:	eb 69                	jmp    404545 <__ctype_b_loc@plt+0x2525>
  4044dc:	48 8b 0d f5 4e 22 00 	mov    0x224ef5(%rip),%rcx        # 6293d8 <stderr@@GLIBC_2.2.5+0x18>
  4044e3:	48 85 c9             	test   %rcx,%rcx
  4044e6:	75 22                	jne    40450a <__ctype_b_loc@plt+0x24ea>
  4044e8:	bf 5c 41 42 00       	mov    $0x42415c,%edi
  4044ed:	be 5d 0a 42 00       	mov    $0x420a5d,%esi
  4044f2:	31 c0                	xor    %eax,%eax
  4044f4:	e8 37 71 00 00       	callq  40b630 <__ctype_b_loc@plt+0x9610>
  4044f9:	31 ff                	xor    %edi,%edi
  4044fb:	48 89 c6             	mov    %rax,%rsi
  4044fe:	e8 7d 77 00 00       	callq  40bc80 <__ctype_b_loc@plt+0x9c60>
  404503:	48 8b 0d ce 4e 22 00 	mov    0x224ece(%rip),%rcx        # 6293d8 <stderr@@GLIBC_2.2.5+0x18>
  40450a:	48 63 d5             	movslq %ebp,%rdx
  40450d:	be 01 00 00 00       	mov    $0x1,%esi
  404512:	4c 89 f7             	mov    %r14,%rdi
  404515:	e8 a6 d6 ff ff       	callq  401bc0 <fread@plt>
  40451a:	48 89 c3             	mov    %rax,%rbx
  40451d:	85 db                	test   %ebx,%ebx
  40451f:	0f 85 c3 00 00 00    	jne    4045e8 <__ctype_b_loc@plt+0x25c8>
  404525:	48 8b 3d ac 4e 22 00 	mov    0x224eac(%rip),%rdi        # 6293d8 <stderr@@GLIBC_2.2.5+0x18>
  40452c:	e8 4f d6 ff ff       	callq  401b80 <ferror@plt>
  404531:	31 db                	xor    %ebx,%ebx
  404533:	85 c0                	test   %eax,%eax
  404535:	0f 84 ad 00 00 00    	je     4045e8 <__ctype_b_loc@plt+0x25c8>
  40453b:	bf 5c 41 42 00       	mov    $0x42415c,%edi
  404540:	be 70 0a 42 00       	mov    $0x420a70,%esi
  404545:	31 c0                	xor    %eax,%eax
  404547:	e8 e4 70 00 00       	callq  40b630 <__ctype_b_loc@plt+0x9610>
  40454c:	31 ff                	xor    %edi,%edi
  40454e:	48 89 c6             	mov    %rax,%rsi
  404551:	e8 2a 77 00 00       	callq  40bc80 <__ctype_b_loc@plt+0x9c60>
  404556:	e9 8d 00 00 00       	jmpq   4045e8 <__ctype_b_loc@plt+0x25c8>
  40455b:	31 db                	xor    %ebx,%ebx
  40455d:	e9 86 00 00 00       	jmpq   4045e8 <__ctype_b_loc@plt+0x25c8>
  404562:	4c 89 f7             	mov    %r14,%rdi
  404565:	48 89 de             	mov    %rbx,%rsi
  404568:	e8 f3 d5 ff ff       	callq  401b60 <strcpy@plt>
  40456d:	4c 89 f7             	mov    %r14,%rdi
  404570:	e8 8b d6 ff ff       	callq  401c00 <add_history@plt>
  404575:	48 8b 05 04 4f 22 00 	mov    0x224f04(%rip),%rax        # 629480 <stderr@@GLIBC_2.2.5+0xc0>
  40457c:	80 78 73 00          	cmpb   $0x0,0x73(%rax)
  404580:	74 23                	je     4045a5 <__ctype_b_loc@plt+0x2585>
  404582:	48 8b 78 78          	mov    0x78(%rax),%rdi
  404586:	e8 d5 d6 ff ff       	callq  401c60 <write_history@plt>
  40458b:	48 8b 05 ee 4e 22 00 	mov    0x224eee(%rip),%rax        # 629480 <stderr@@GLIBC_2.2.5+0xc0>
  404592:	48 8b 78 78          	mov    0x78(%rax),%rdi
  404596:	be e8 03 00 00       	mov    $0x3e8,%esi
  40459b:	e8 10 d6 ff ff       	callq  401bb0 <history_truncate_file@plt>
  4045a0:	e8 ab d6 ff ff       	callq  401c50 <clear_history@plt>
  4045a5:	be 3b 00 00 00       	mov    $0x3b,%esi
  4045aa:	4c 89 f7             	mov    %r14,%rdi
  4045ad:	e8 fe d6 ff ff       	callq  401cb0 <strchr@plt>
  4045b2:	48 85 c0             	test   %rax,%rax
  4045b5:	75 0f                	jne    4045c6 <__ctype_b_loc@plt+0x25a6>
  4045b7:	4c 89 f7             	mov    %r14,%rdi
  4045ba:	e8 b1 d6 ff ff       	callq  401c70 <strlen@plt>
  4045bf:	66 41 c7 04 06 3b 00 	movw   $0x3b,(%r14,%rax,1)
  4045c6:	4c 89 f7             	mov    %r14,%rdi
  4045c9:	e8 a2 d6 ff ff       	callq  401c70 <strlen@plt>
  4045ce:	66 41 c7 04 06 0a 00 	movw   $0xa,(%r14,%rax,1)
  4045d5:	48 89 df             	mov    %rbx,%rdi
  4045d8:	e8 33 d5 ff ff       	callq  401b10 <free@plt>
  4045dd:	4c 89 f7             	mov    %r14,%rdi
  4045e0:	e8 8b d6 ff ff       	callq  401c70 <strlen@plt>
  4045e5:	48 89 c3             	mov    %rax,%rbx
  4045e8:	89 d8                	mov    %ebx,%eax
  4045ea:	5b                   	pop    %rbx
  4045eb:	41 5e                	pop    %r14
  4045ed:	5d                   	pop    %rbp
  4045ee:	c3                   	retq   
  4045ef:	90                   	nop
  4045f0:	53                   	push   %rbx
  4045f1:	48 89 f3             	mov    %rsi,%rbx
  4045f4:	e8 57 2a 00 00       	callq  407050 <__ctype_b_loc@plt+0x5030>
  4045f9:	e8 22 db ff ff       	callq  402120 <__ctype_b_loc@plt+0x100>
  4045fe:	48 8b 05 7b 4e 22 00 	mov    0x224e7b(%rip),%rax        # 629480 <stderr@@GLIBC_2.2.5+0xc0>
  404605:	80 78 72 00          	cmpb   $0x0,0x72(%rax)
  404609:	74 13                	je     40461e <__ctype_b_loc@plt+0x25fe>
  40460b:	48 8b 3d 8e 4e 22 00 	mov    0x224e8e(%rip),%rdi        # 6294a0 <stderr@@GLIBC_2.2.5+0xe0>
  404612:	be 01 00 00 00       	mov    $0x1,%esi
  404617:	31 d2                	xor    %edx,%edx
  404619:	e8 c2 60 00 00       	callq  40a6e0 <__ctype_b_loc@plt+0x86c0>
  40461e:	48 8b 35 7b 4e 22 00 	mov    0x224e7b(%rip),%rsi        # 6294a0 <stderr@@GLIBC_2.2.5+0xe0>
  404625:	48 89 df             	mov    %rbx,%rdi
  404628:	5b                   	pop    %rbx
  404629:	e9 02 3a 00 00       	jmpq   408030 <__ctype_b_loc@plt+0x6010>
  40462e:	66 90                	xchg   %ax,%ax
  404630:	55                   	push   %rbp
  404631:	41 57                	push   %r15
  404633:	41 56                	push   %r14
  404635:	41 54                	push   %r12
  404637:	53                   	push   %rbx
  404638:	49 89 f6             	mov    %rsi,%r14
  40463b:	48 89 fb             	mov    %rdi,%rbx
  40463e:	48 8b 05 3b 4e 22 00 	mov    0x224e3b(%rip),%rax        # 629480 <stderr@@GLIBC_2.2.5+0xc0>
  404645:	40 8a 68 70          	mov    0x70(%rax),%bpl
  404649:	c6 40 70 00          	movb   $0x0,0x70(%rax)
  40464d:	8b 3d 6d 4c 22 00    	mov    0x224c6d(%rip),%edi        # 6292c0 <_fini@@Base+0x20d09c>
  404653:	8b 35 6f 4c 22 00    	mov    0x224c6f(%rip),%esi        # 6292c8 <_fini@@Base+0x20d0a4>
  404659:	e8 12 73 00 00       	callq  40b970 <__ctype_b_loc@plt+0x9950>
  40465e:	49 89 c4             	mov    %rax,%r12
  404661:	c7 05 29 4d 22 00 00 	movl   $0x0,0x224d29(%rip)        # 629394 <_fini@@Base+0x20d170>
  404668:	00 00 00 
  40466b:	c7 05 1b 4d 22 00 01 	movl   $0x1,0x224d1b(%rip)        # 629390 <_fini@@Base+0x20d16c>
  404672:	00 00 00 
  404675:	48 89 df             	mov    %rbx,%rdi
  404678:	e8 f3 30 00 00       	callq  407770 <__ctype_b_loc@plt+0x5750>
  40467d:	49 89 c7             	mov    %rax,%r15
  404680:	e8 9b da ff ff       	callq  402120 <__ctype_b_loc@plt+0x100>
  404685:	48 8b 05 f4 4d 22 00 	mov    0x224df4(%rip),%rax        # 629480 <stderr@@GLIBC_2.2.5+0xc0>
  40468c:	80 78 72 00          	cmpb   $0x0,0x72(%rax)
  404690:	74 13                	je     4046a5 <__ctype_b_loc@plt+0x2685>
  404692:	48 8b 3d 07 4e 22 00 	mov    0x224e07(%rip),%rdi        # 6294a0 <stderr@@GLIBC_2.2.5+0xe0>
  404699:	be 01 00 00 00       	mov    $0x1,%esi
  40469e:	31 d2                	xor    %edx,%edx
  4046a0:	e8 3b 60 00 00       	callq  40a6e0 <__ctype_b_loc@plt+0x86c0>
  4046a5:	48 8b 35 f4 4d 22 00 	mov    0x224df4(%rip),%rsi        # 6294a0 <stderr@@GLIBC_2.2.5+0xe0>
  4046ac:	4c 89 f7             	mov    %r14,%rdi
  4046af:	e8 7c 39 00 00       	callq  408030 <__ctype_b_loc@plt+0x6010>
  4046b4:	48 89 c3             	mov    %rax,%rbx
  4046b7:	4c 89 ff             	mov    %r15,%rdi
  4046ba:	e8 01 2d 00 00       	callq  4073c0 <__ctype_b_loc@plt+0x53a0>
  4046bf:	48 8b 05 ba 4d 22 00 	mov    0x224dba(%rip),%rax        # 629480 <stderr@@GLIBC_2.2.5+0xc0>
  4046c6:	40 88 68 70          	mov    %bpl,0x70(%rax)
  4046ca:	41 8b 04 24          	mov    (%r12),%eax
  4046ce:	89 05 bc 4c 22 00    	mov    %eax,0x224cbc(%rip)        # 629390 <_fini@@Base+0x20d16c>
  4046d4:	41 8b 44 24 04       	mov    0x4(%r12),%eax
  4046d9:	89 05 b5 4c 22 00    	mov    %eax,0x224cb5(%rip)        # 629394 <_fini@@Base+0x20d170>
  4046df:	48 89 d8             	mov    %rbx,%rax
  4046e2:	5b                   	pop    %rbx
  4046e3:	41 5c                	pop    %r12
  4046e5:	41 5e                	pop    %r14
  4046e7:	41 5f                	pop    %r15
  4046e9:	5d                   	pop    %rbp
  4046ea:	c3                   	retq   
  4046eb:	0f 1f 44 00 00       	nopl   0x0(%rax,%rax,1)
  4046f0:	55                   	push   %rbp
  4046f1:	41 57                	push   %r15
  4046f3:	41 56                	push   %r14
  4046f5:	53                   	push   %rbx
  4046f6:	50                   	push   %rax
  4046f7:	49 89 f7             	mov    %rsi,%r15
  4046fa:	89 fd                	mov    %edi,%ebp
  4046fc:	31 c0                	xor    %eax,%eax
  4046fe:	e8 1d 73 00 00       	callq  40ba20 <__ctype_b_loc@plt+0x9a00>
  404703:	48 89 05 76 4d 22 00 	mov    %rax,0x224d76(%rip)        # 629480 <stderr@@GLIBC_2.2.5+0xc0>
  40470a:	bf 3c 00 00 00       	mov    $0x3c,%edi
  40470f:	e8 5c d6 ff ff       	callq  401d70 <alarm@plt>
  404714:	48 8b 3d 95 4c 22 00 	mov    0x224c95(%rip),%rdi        # 6293b0 <stdin@@GLIBC_2.2.5>
  40471b:	31 f6                	xor    %esi,%esi
  40471d:	ba 02 00 00 00       	mov    $0x2,%edx
  404722:	31 c9                	xor    %ecx,%ecx
  404724:	e8 d7 d7 ff ff       	callq  401f00 <setvbuf@plt>
  404729:	48 8b 3d 70 4c 22 00 	mov    0x224c70(%rip),%rdi        # 6293a0 <stdout@@GLIBC_2.2.5>
  404730:	31 f6                	xor    %esi,%esi
  404732:	ba 02 00 00 00       	mov    $0x2,%edx
  404737:	31 c9                	xor    %ecx,%ecx
  404739:	e8 c2 d7 ff ff       	callq  401f00 <setvbuf@plt>
  40473e:	48 8b 3d 7b 4c 22 00 	mov    0x224c7b(%rip),%rdi        # 6293c0 <stderr@@GLIBC_2.2.5>
  404745:	31 f6                	xor    %esi,%esi
  404747:	ba 02 00 00 00       	mov    $0x2,%edx
  40474c:	31 c9                	xor    %ecx,%ecx
  40474e:	e8 ad d7 ff ff       	callq  401f00 <setvbuf@plt>
  404753:	c7 44 24 04 00 00 00 	movl   $0x0,0x4(%rsp)
  40475a:	00 
  40475b:	bb 01 00 00 00       	mov    $0x1,%ebx
  404760:	4c 8d 74 24 04       	lea    0x4(%rsp),%r14
  404765:	eb 0c                	jmp    404773 <__ctype_b_loc@plt+0x2753>
  404767:	66 0f 1f 84 00 00 00 	nopw   0x0(%rax,%rax,1)
  40476e:	00 00 
  404770:	48 ff c3             	inc    %rbx
  404773:	ba b5 0a 42 00       	mov    $0x420ab5,%edx
  404778:	b9 d0 92 62 00       	mov    $0x6292d0,%ecx
  40477d:	89 ef                	mov    %ebp,%edi
  40477f:	4c 89 fe             	mov    %r15,%rsi
  404782:	4d 89 f0             	mov    %r14,%r8
  404785:	e8 06 d5 ff ff       	callq  401c90 <getopt_long@plt>
  40478a:	8d 48 98             	lea    -0x68(%rax),%ecx
  40478d:	83 f9 0e             	cmp    $0xe,%ecx
  404790:	77 3b                	ja     4047cd <__ctype_b_loc@plt+0x27ad>
  404792:	ff 24 cd f8 cb 41 00 	jmpq   *0x41cbf8(,%rcx,8)
  404799:	48 8b 05 e0 4c 22 00 	mov    0x224ce0(%rip),%rax        # 629480 <stderr@@GLIBC_2.2.5+0xc0>
  4047a0:	c6 40 70 01          	movb   $0x1,0x70(%rax)
  4047a4:	48 ff c3             	inc    %rbx
  4047a7:	eb ca                	jmp    404773 <__ctype_b_loc@plt+0x2753>
  4047a9:	0f 1f 80 00 00 00 00 	nopl   0x0(%rax)
  4047b0:	48 8b 05 c9 4c 22 00 	mov    0x224cc9(%rip),%rax        # 629480 <stderr@@GLIBC_2.2.5+0xc0>
  4047b7:	c6 40 72 01          	movb   $0x1,0x72(%rax)
  4047bb:	48 ff c3             	inc    %rbx
  4047be:	eb b3                	jmp    404773 <__ctype_b_loc@plt+0x2753>
  4047c0:	48 8b 05 b9 4c 22 00 	mov    0x224cb9(%rip),%rax        # 629480 <stderr@@GLIBC_2.2.5+0xc0>
  4047c7:	c6 40 71 01          	movb   $0x1,0x71(%rax)
  4047cb:	eb a3                	jmp    404770 <__ctype_b_loc@plt+0x2750>
  4047cd:	83 f8 ff             	cmp    $0xffffffff,%eax
  4047d0:	75 9e                	jne    404770 <__ctype_b_loc@plt+0x2750>
  4047d2:	39 eb                	cmp    %ebp,%ebx
  4047d4:	7d 42                	jge    404818 <__ctype_b_loc@plt+0x27f8>
  4047d6:	49 8b 3c df          	mov    (%r15,%rbx,8),%rdi
  4047da:	be da 4a 42 00       	mov    $0x424ada,%esi
  4047df:	e8 6c d7 ff ff       	callq  401f50 <fopen@plt>
  4047e4:	48 89 05 e5 4b 22 00 	mov    %rax,0x224be5(%rip)        # 6293d0 <stderr@@GLIBC_2.2.5+0x10>
  4047eb:	49 8b 04 df          	mov    (%r15,%rbx,8),%rax
  4047ef:	48 8b 0d 8a 4c 22 00 	mov    0x224c8a(%rip),%rcx        # 629480 <stderr@@GLIBC_2.2.5+0xc0>
  4047f6:	48 89 81 48 01 00 00 	mov    %rax,0x148(%rcx)
  4047fd:	eb 50                	jmp    40484f <__ctype_b_loc@plt+0x282f>
  4047ff:	e8 bc 5b 00 00       	callq  40a3c0 <__ctype_b_loc@plt+0x83a0>
  404804:	eb 05                	jmp    40480b <__ctype_b_loc@plt+0x27eb>
  404806:	e8 15 5c 00 00       	callq  40a420 <__ctype_b_loc@plt+0x8400>
  40480b:	31 c0                	xor    %eax,%eax
  40480d:	48 83 c4 08          	add    $0x8,%rsp
  404811:	5b                   	pop    %rbx
  404812:	41 5e                	pop    %r14
  404814:	41 5f                	pop    %r15
  404816:	5d                   	pop    %rbp
  404817:	c3                   	retq   
  404818:	48 8b 3d 91 4b 22 00 	mov    0x224b91(%rip),%rdi        # 6293b0 <stdin@@GLIBC_2.2.5>
  40481f:	e8 6c d6 ff ff       	callq  401e90 <fileno@plt>
  404824:	89 c7                	mov    %eax,%edi
  404826:	e8 65 d3 ff ff       	callq  401b90 <isatty@plt>
  40482b:	48 8b 0d 4e 4c 22 00 	mov    0x224c4e(%rip),%rcx        # 629480 <stderr@@GLIBC_2.2.5+0xc0>
  404832:	85 c0                	test   %eax,%eax
  404834:	75 0a                	jne    404840 <__ctype_b_loc@plt+0x2820>
  404836:	80 79 70 00          	cmpb   $0x0,0x70(%rcx)
  40483a:	0f 84 02 01 00 00    	je     404942 <__ctype_b_loc@plt+0x2922>
  404840:	c6 41 70 01          	movb   $0x1,0x70(%rcx)
  404844:	48 c7 81 48 01 00 00 	movq   $0x420abb,0x148(%rcx)
  40484b:	bb 0a 42 00 
  40484f:	e8 0c a1 00 00       	callq  40e960 <__ctype_b_loc@plt+0xc940>
  404854:	48 89 c3             	mov    %rax,%rbx
  404857:	48 8b 05 22 4c 22 00 	mov    0x224c22(%rip),%rax        # 629480 <stderr@@GLIBC_2.2.5+0xc0>
  40485e:	48 89 98 70 01 00 00 	mov    %rbx,0x170(%rax)
  404865:	80 78 70 00          	cmpb   $0x0,0x70(%rax)
  404869:	0f 84 8e 00 00 00    	je     4048fd <__ctype_b_loc@plt+0x28dd>
  40486f:	e8 5c 5b 00 00       	callq  40a3d0 <__ctype_b_loc@plt+0x83b0>
  404874:	eb 2b                	jmp    4048a1 <__ctype_b_loc@plt+0x2881>
  404876:	66 2e 0f 1f 84 00 00 	nopw   %cs:0x0(%rax,%rax,1)
  40487d:	00 00 00 
  404880:	48 8b 35 19 4c 22 00 	mov    0x224c19(%rip),%rsi        # 6294a0 <stderr@@GLIBC_2.2.5+0xe0>
  404887:	48 89 ef             	mov    %rbp,%rdi
  40488a:	e8 a1 37 00 00       	callq  408030 <__ctype_b_loc@plt+0x6010>
  40488f:	31 d2                	xor    %edx,%edx
  404891:	b9 01 00 00 00       	mov    $0x1,%ecx
  404896:	48 89 df             	mov    %rbx,%rdi
  404899:	48 89 c6             	mov    %rax,%rsi
  40489c:	e8 ef 84 00 00       	callq  40cd90 <__ctype_b_loc@plt+0xad70>
  4048a1:	48 8b 3d d8 4b 22 00 	mov    0x224bd8(%rip),%rdi        # 629480 <stderr@@GLIBC_2.2.5+0xc0>
  4048a8:	48 83 ef 80          	sub    $0xffffffffffffff80,%rdi
  4048ac:	e8 3f d5 ff ff       	callq  401df0 <_setjmp@plt>
  4048b1:	85 c0                	test   %eax,%eax
  4048b3:	75 ec                	jne    4048a1 <__ctype_b_loc@plt+0x2881>
  4048b5:	48 8b 1d e4 4a 22 00 	mov    0x224ae4(%rip),%rbx        # 6293a0 <stdout@@GLIBC_2.2.5>
  4048bc:	48 8b 3d 0d 4b 22 00 	mov    0x224b0d(%rip),%rdi        # 6293d0 <stderr@@GLIBC_2.2.5+0x10>
  4048c3:	48 8b 05 b6 4b 22 00 	mov    0x224bb6(%rip),%rax        # 629480 <stderr@@GLIBC_2.2.5+0xc0>
  4048ca:	48 8b a8 70 01 00 00 	mov    0x170(%rax),%rbp
  4048d1:	e8 7a 27 00 00       	callq  407050 <__ctype_b_loc@plt+0x5030>
  4048d6:	e8 45 d8 ff ff       	callq  402120 <__ctype_b_loc@plt+0x100>
  4048db:	48 8b 05 9e 4b 22 00 	mov    0x224b9e(%rip),%rax        # 629480 <stderr@@GLIBC_2.2.5+0xc0>
  4048e2:	80 78 72 00          	cmpb   $0x0,0x72(%rax)
  4048e6:	74 98                	je     404880 <__ctype_b_loc@plt+0x2860>
  4048e8:	48 8b 3d b1 4b 22 00 	mov    0x224bb1(%rip),%rdi        # 6294a0 <stderr@@GLIBC_2.2.5+0xe0>
  4048ef:	be 01 00 00 00       	mov    $0x1,%esi
  4048f4:	31 d2                	xor    %edx,%edx
  4048f6:	e8 e5 5d 00 00       	callq  40a6e0 <__ctype_b_loc@plt+0x86c0>
  4048fb:	eb 83                	jmp    404880 <__ctype_b_loc@plt+0x2860>
  4048fd:	48 8b 3d cc 4a 22 00 	mov    0x224acc(%rip),%rdi        # 6293d0 <stderr@@GLIBC_2.2.5+0x10>
  404904:	e8 47 27 00 00       	callq  407050 <__ctype_b_loc@plt+0x5030>
  404909:	e8 12 d8 ff ff       	callq  402120 <__ctype_b_loc@plt+0x100>
  40490e:	48 8b 05 6b 4b 22 00 	mov    0x224b6b(%rip),%rax        # 629480 <stderr@@GLIBC_2.2.5+0xc0>
  404915:	80 78 72 00          	cmpb   $0x0,0x72(%rax)
  404919:	74 13                	je     40492e <__ctype_b_loc@plt+0x290e>
  40491b:	48 8b 3d 7e 4b 22 00 	mov    0x224b7e(%rip),%rdi        # 6294a0 <stderr@@GLIBC_2.2.5+0xe0>
  404922:	be 01 00 00 00       	mov    $0x1,%esi
  404927:	31 d2                	xor    %edx,%edx
  404929:	e8 b2 5d 00 00       	callq  40a6e0 <__ctype_b_loc@plt+0x86c0>
  40492e:	48 8b 35 6b 4b 22 00 	mov    0x224b6b(%rip),%rsi        # 6294a0 <stderr@@GLIBC_2.2.5+0xe0>
  404935:	48 89 df             	mov    %rbx,%rdi
  404938:	e8 f3 36 00 00       	callq  408030 <__ctype_b_loc@plt+0x6010>
  40493d:	e9 c9 fe ff ff       	jmpq   40480b <__ctype_b_loc@plt+0x27eb>
  404942:	48 8b 05 67 4a 22 00 	mov    0x224a67(%rip),%rax        # 6293b0 <stdin@@GLIBC_2.2.5>
  404949:	48 89 05 80 4a 22 00 	mov    %rax,0x224a80(%rip)        # 6293d0 <stderr@@GLIBC_2.2.5+0x10>
  404950:	e9 fa fe ff ff       	jmpq   40484f <__ctype_b_loc@plt+0x282f>
  404955:	66 2e 0f 1f 84 00 00 	nopw   %cs:0x0(%rax,%rax,1)
  40495c:	00 00 00 
  40495f:	90                   	nop
  404960:	55                   	push   %rbp
  404961:	41 57                	push   %r15
  404963:	41 56                	push   %r14
  404965:	41 55                	push   %r13
  404967:	41 54                	push   %r12
  404969:	53                   	push   %rbx
  40496a:	50                   	push   %rax
  40496b:	8a 05 7f 4a 22 00    	mov    0x224a7f(%rip),%al        # 6293f0 <stderr@@GLIBC_2.2.5+0x30>
  404971:	84 c0                	test   %al,%al
  404973:	0f 85 d7 03 00 00    	jne    404d50 <__ctype_b_loc@plt+0x2d30>
  404979:	c6 05 70 4a 22 00 01 	movb   $0x1,0x224a70(%rip)        # 6293f0 <stderr@@GLIBC_2.2.5+0x30>
  404980:	48 83 3d 70 4a 22 00 	cmpq   $0x0,0x224a70(%rip)        # 6293f8 <stderr@@GLIBC_2.2.5+0x38>
  404987:	00 
  404988:	75 1a                	jne    4049a4 <__ctype_b_loc@plt+0x2984>
  40498a:	bf 08 00 01 00       	mov    $0x10008,%edi
  40498f:	e8 1c d5 ff ff       	callq  401eb0 <malloc@plt>
  404994:	48 89 05 5d 4a 22 00 	mov    %rax,0x224a5d(%rip)        # 6293f8 <stderr@@GLIBC_2.2.5+0x38>
  40499b:	48 85 c0             	test   %rax,%rax
  40499e:	0f 84 d9 23 00 00    	je     406d7d <__ctype_b_loc@plt+0x4d5d>
  4049a4:	83 3d 55 4a 22 00 00 	cmpl   $0x0,0x224a55(%rip)        # 629400 <stderr@@GLIBC_2.2.5+0x40>
  4049ab:	75 0a                	jne    4049b7 <__ctype_b_loc@plt+0x2997>
  4049ad:	c7 05 49 4a 22 00 01 	movl   $0x1,0x224a49(%rip)        # 629400 <stderr@@GLIBC_2.2.5+0x40>
  4049b4:	00 00 00 
  4049b7:	48 8b 1d 1a 4a 22 00 	mov    0x224a1a(%rip),%rbx        # 6293d8 <stderr@@GLIBC_2.2.5+0x18>
  4049be:	48 85 db             	test   %rbx,%rbx
  4049c1:	75 0e                	jne    4049d1 <__ctype_b_loc@plt+0x29b1>
  4049c3:	48 8b 1d e6 49 22 00 	mov    0x2249e6(%rip),%rbx        # 6293b0 <stdin@@GLIBC_2.2.5>
  4049ca:	48 89 1d 07 4a 22 00 	mov    %rbx,0x224a07(%rip)        # 6293d8 <stderr@@GLIBC_2.2.5+0x18>
  4049d1:	48 83 3d 07 4a 22 00 	cmpq   $0x0,0x224a07(%rip)        # 6293e0 <stderr@@GLIBC_2.2.5+0x20>
  4049d8:	00 
  4049d9:	75 0e                	jne    4049e9 <__ctype_b_loc@plt+0x29c9>
  4049db:	48 8b 05 be 49 22 00 	mov    0x2249be(%rip),%rax        # 6293a0 <stdout@@GLIBC_2.2.5>
  4049e2:	48 89 05 f7 49 22 00 	mov    %rax,0x2249f7(%rip)        # 6293e0 <stderr@@GLIBC_2.2.5+0x20>
  4049e9:	48 8b 3d 18 4a 22 00 	mov    0x224a18(%rip),%rdi        # 629408 <stderr@@GLIBC_2.2.5+0x48>
  4049f0:	48 85 ff             	test   %rdi,%rdi
  4049f3:	74 7b                	je     404a70 <__ctype_b_loc@plt+0x2a50>
  4049f5:	48 8b 0d 14 4a 22 00 	mov    0x224a14(%rip),%rcx        # 629410 <stderr@@GLIBC_2.2.5+0x50>
  4049fc:	48 8b 04 cf          	mov    (%rdi,%rcx,8),%rax
  404a00:	48 85 c0             	test   %rax,%rax
  404a03:	0f 85 bd 00 00 00    	jne    404ac6 <__ctype_b_loc@plt+0x2aa6>
  404a09:	48 8b 2d 38 4a 22 00 	mov    0x224a38(%rip),%rbp        # 629448 <stderr@@GLIBC_2.2.5+0x88>
  404a10:	48 8d 45 ff          	lea    -0x1(%rbp),%rax
  404a14:	48 39 c1             	cmp    %rax,%rcx
  404a17:	0f 82 8a 00 00 00    	jb     404aa7 <__ctype_b_loc@plt+0x2a87>
  404a1d:	48 8d 34 ed 40 00 00 	lea    0x40(,%rbp,8),%rsi
  404a24:	00 
  404a25:	e8 c6 d4 ff ff       	callq  401ef0 <realloc@plt>
  404a2a:	48 89 05 d7 49 22 00 	mov    %rax,0x2249d7(%rip)        # 629408 <stderr@@GLIBC_2.2.5+0x48>
  404a31:	48 85 c0             	test   %rax,%rax
  404a34:	0f 84 57 23 00 00    	je     406d91 <__ctype_b_loc@plt+0x4d71>
  404a3a:	48 83 c5 08          	add    $0x8,%rbp
  404a3e:	48 8b 0d 03 4a 22 00 	mov    0x224a03(%rip),%rcx        # 629448 <stderr@@GLIBC_2.2.5+0x88>
  404a45:	66 0f 57 c0          	xorpd  %xmm0,%xmm0
  404a49:	66 0f 11 44 c8 30    	movupd %xmm0,0x30(%rax,%rcx,8)
  404a4f:	66 0f 11 44 c8 20    	movupd %xmm0,0x20(%rax,%rcx,8)
  404a55:	66 0f 11 44 c8 10    	movupd %xmm0,0x10(%rax,%rcx,8)
  404a5b:	66 0f 11 04 c8       	movupd %xmm0,(%rax,%rcx,8)
  404a60:	48 89 2d e1 49 22 00 	mov    %rbp,0x2249e1(%rip)        # 629448 <stderr@@GLIBC_2.2.5+0x88>
  404a67:	48 8b 1d 6a 49 22 00 	mov    0x22496a(%rip),%rbx        # 6293d8 <stderr@@GLIBC_2.2.5+0x18>
  404a6e:	eb 37                	jmp    404aa7 <__ctype_b_loc@plt+0x2a87>
  404a70:	bf 08 00 00 00       	mov    $0x8,%edi
  404a75:	e8 36 d4 ff ff       	callq  401eb0 <malloc@plt>
  404a7a:	48 89 05 87 49 22 00 	mov    %rax,0x224987(%rip)        # 629408 <stderr@@GLIBC_2.2.5+0x48>
  404a81:	48 85 c0             	test   %rax,%rax
  404a84:	0f 84 fd 22 00 00    	je     406d87 <__ctype_b_loc@plt+0x4d67>
  404a8a:	48 c7 00 00 00 00 00 	movq   $0x0,(%rax)
  404a91:	48 c7 05 ac 49 22 00 	movq   $0x1,0x2249ac(%rip)        # 629448 <stderr@@GLIBC_2.2.5+0x88>
  404a98:	01 00 00 00 
  404a9c:	48 c7 05 69 49 22 00 	movq   $0x0,0x224969(%rip)        # 629410 <stderr@@GLIBC_2.2.5+0x50>
  404aa3:	00 00 00 00 
  404aa7:	be 00 40 00 00       	mov    $0x4000,%esi
  404aac:	48 89 df             	mov    %rbx,%rdi
  404aaf:	e8 4c 23 00 00       	callq  406e00 <__ctype_b_loc@plt+0x4de0>
  404ab4:	48 8b 3d 4d 49 22 00 	mov    0x22494d(%rip),%rdi        # 629408 <stderr@@GLIBC_2.2.5+0x48>
  404abb:	48 8b 0d 4e 49 22 00 	mov    0x22494e(%rip),%rcx        # 629410 <stderr@@GLIBC_2.2.5+0x50>
  404ac2:	48 89 04 cf          	mov    %rax,(%rdi,%rcx,8)
  404ac6:	8b 50 1c             	mov    0x1c(%rax),%edx
  404ac9:	89 15 71 49 22 00    	mov    %edx,0x224971(%rip)        # 629440 <stderr@@GLIBC_2.2.5+0x80>
  404acf:	48 8b 40 10          	mov    0x10(%rax),%rax
  404ad3:	48 89 05 3e 49 22 00 	mov    %rax,0x22493e(%rip)        # 629418 <stderr@@GLIBC_2.2.5+0x58>
  404ada:	48 89 05 cf 49 22 00 	mov    %rax,0x2249cf(%rip)        # 6294b0 <stderr@@GLIBC_2.2.5+0xf0>
  404ae1:	48 8b 0c cf          	mov    (%rdi,%rcx,8),%rcx
  404ae5:	48 8b 09             	mov    (%rcx),%rcx
  404ae8:	48 89 0d e9 48 22 00 	mov    %rcx,0x2248e9(%rip)        # 6293d8 <stderr@@GLIBC_2.2.5+0x18>
  404aef:	8a 00                	mov    (%rax),%al
  404af1:	88 05 29 49 22 00    	mov    %al,0x224929(%rip)        # 629420 <stderr@@GLIBC_2.2.5+0x60>
  404af7:	e9 54 02 00 00       	jmpq   404d50 <__ctype_b_loc@plt+0x2d30>
  404afc:	8b 05 8e 48 22 00    	mov    0x22488e(%rip),%eax        # 629390 <_fini@@Base+0x20d16c>
  404b02:	89 05 c0 47 22 00    	mov    %eax,0x2247c0(%rip)        # 6292c8 <_fini@@Base+0x20d0a4>
  404b08:	89 05 b2 47 22 00    	mov    %eax,0x2247b2(%rip)        # 6292c0 <_fini@@Base+0x20d09c>
  404b0e:	8b 05 80 48 22 00    	mov    0x224880(%rip),%eax        # 629394 <_fini@@Base+0x20d170>
  404b14:	89 05 aa 47 22 00    	mov    %eax,0x2247aa(%rip)        # 6292c4 <_fini@@Base+0x20d0a0>
  404b1a:	8b 0d 98 49 22 00    	mov    0x224998(%rip),%ecx        # 6294b8 <stderr@@GLIBC_2.2.5+0xf8>
  404b20:	8d 14 01             	lea    (%rcx,%rax,1),%edx
  404b23:	8d 44 01 ff          	lea    -0x1(%rcx,%rax,1),%eax
  404b27:	89 05 9f 47 22 00    	mov    %eax,0x22479f(%rip)        # 6292cc <_fini@@Base+0x20d0a8>
  404b2d:	89 15 61 48 22 00    	mov    %edx,0x224861(%rip)        # 629394 <_fini@@Base+0x20d170>
  404b33:	c7 05 c3 48 22 00 03 	movl   $0x3,0x2248c3(%rip)        # 629400 <stderr@@GLIBC_2.2.5+0x40>
  404b3a:	00 00 00 
  404b3d:	e9 0e 02 00 00       	jmpq   404d50 <__ctype_b_loc@plt+0x2d30>
  404b42:	8b 05 48 48 22 00    	mov    0x224848(%rip),%eax        # 629390 <_fini@@Base+0x20d16c>
  404b48:	89 05 7a 47 22 00    	mov    %eax,0x22477a(%rip)        # 6292c8 <_fini@@Base+0x20d0a4>
  404b4e:	89 05 6c 47 22 00    	mov    %eax,0x22476c(%rip)        # 6292c0 <_fini@@Base+0x20d09c>
  404b54:	8b 05 3a 48 22 00    	mov    0x22483a(%rip),%eax        # 629394 <_fini@@Base+0x20d170>
  404b5a:	89 05 64 47 22 00    	mov    %eax,0x224764(%rip)        # 6292c4 <_fini@@Base+0x20d0a0>
  404b60:	8b 0d 52 49 22 00    	mov    0x224952(%rip),%ecx        # 6294b8 <stderr@@GLIBC_2.2.5+0xf8>
  404b66:	8d 14 01             	lea    (%rcx,%rax,1),%edx
  404b69:	8d 44 01 ff          	lea    -0x1(%rcx,%rax,1),%eax
  404b6d:	89 05 59 47 22 00    	mov    %eax,0x224759(%rip)        # 6292cc <_fini@@Base+0x20d0a8>
  404b73:	89 15 1b 48 22 00    	mov    %edx,0x22481b(%rip)        # 629394 <_fini@@Base+0x20d170>
  404b79:	c7 05 7d 48 22 00 01 	movl   $0x1,0x22487d(%rip)        # 629400 <stderr@@GLIBC_2.2.5+0x40>
  404b80:	00 00 00 
  404b83:	e9 c8 01 00 00       	jmpq   404d50 <__ctype_b_loc@plt+0x2d30>
  404b88:	8b 05 02 48 22 00    	mov    0x224802(%rip),%eax        # 629390 <_fini@@Base+0x20d16c>
  404b8e:	89 05 34 47 22 00    	mov    %eax,0x224734(%rip)        # 6292c8 <_fini@@Base+0x20d0a4>
  404b94:	89 05 26 47 22 00    	mov    %eax,0x224726(%rip)        # 6292c0 <_fini@@Base+0x20d09c>
  404b9a:	8b 05 f4 47 22 00    	mov    0x2247f4(%rip),%eax        # 629394 <_fini@@Base+0x20d170>
  404ba0:	89 05 1e 47 22 00    	mov    %eax,0x22471e(%rip)        # 6292c4 <_fini@@Base+0x20d0a0>
  404ba6:	8b 0d 0c 49 22 00    	mov    0x22490c(%rip),%ecx        # 6294b8 <stderr@@GLIBC_2.2.5+0xf8>
  404bac:	8d 44 08 ff          	lea    -0x1(%rax,%rcx,1),%eax
  404bb0:	89 05 16 47 22 00    	mov    %eax,0x224716(%rip)        # 6292cc <_fini@@Base+0x20d0a8>
  404bb6:	c7 05 d4 47 22 00 00 	movl   $0x0,0x2247d4(%rip)        # 629394 <_fini@@Base+0x20d170>
  404bbd:	00 00 00 
  404bc0:	48 c7 05 e5 48 22 00 	movq   $0x0,0x2248e5(%rip)        # 6294b0 <stderr@@GLIBC_2.2.5+0xf0>
  404bc7:	00 00 00 00 
  404bcb:	c7 05 17 48 22 00 00 	movl   $0x0,0x224817(%rip)        # 6293ec <stderr@@GLIBC_2.2.5+0x2c>
  404bd2:	00 00 00 
  404bd5:	48 8b 05 a4 48 22 00 	mov    0x2248a4(%rip),%rax        # 629480 <stderr@@GLIBC_2.2.5+0xc0>
  404bdc:	80 78 71 00          	cmpb   $0x0,0x71(%rax)
  404be0:	74 18                	je     404bfa <__ctype_b_loc@plt+0x2bda>
  404be2:	bf d4 38 42 00       	mov    $0x4238d4,%edi
  404be7:	be 5a 2e 42 00       	mov    $0x422e5a,%esi
  404bec:	31 c0                	xor    %eax,%eax
  404bee:	e8 cd d0 ff ff       	callq  401cc0 <printf@plt>
  404bf3:	48 8b 05 86 48 22 00 	mov    0x224886(%rip),%rax        # 629480 <stderr@@GLIBC_2.2.5+0xc0>
  404bfa:	80 78 70 00          	cmpb   $0x0,0x70(%rax)
  404bfe:	0f 84 4c 01 00 00    	je     404d50 <__ctype_b_loc@plt+0x2d30>
  404c04:	e9 12 21 00 00       	jmpq   406d1b <__ctype_b_loc@plt+0x4cfb>
  404c09:	8b 3d 81 47 22 00    	mov    0x224781(%rip),%edi        # 629390 <_fini@@Base+0x20d16c>
  404c0f:	89 3d b3 46 22 00    	mov    %edi,0x2246b3(%rip)        # 6292c8 <_fini@@Base+0x20d0a4>
  404c15:	89 3d a5 46 22 00    	mov    %edi,0x2246a5(%rip)        # 6292c0 <_fini@@Base+0x20d09c>
  404c1b:	8b 35 73 47 22 00    	mov    0x224773(%rip),%esi        # 629394 <_fini@@Base+0x20d170>
  404c21:	89 35 9d 46 22 00    	mov    %esi,0x22469d(%rip)        # 6292c4 <_fini@@Base+0x20d0a0>
  404c27:	8b 05 8b 48 22 00    	mov    0x22488b(%rip),%eax        # 6294b8 <stderr@@GLIBC_2.2.5+0xf8>
  404c2d:	8d 0c 30             	lea    (%rax,%rsi,1),%ecx
  404c30:	8d 44 30 ff          	lea    -0x1(%rax,%rsi,1),%eax
  404c34:	89 05 92 46 22 00    	mov    %eax,0x224692(%rip)        # 6292cc <_fini@@Base+0x20d0a8>
  404c3a:	89 0d 54 47 22 00    	mov    %ecx,0x224754(%rip)        # 629394 <_fini@@Base+0x20d170>
  404c40:	4c 8b 35 69 48 22 00 	mov    0x224869(%rip),%r14        # 6294b0 <stderr@@GLIBC_2.2.5+0xf0>
  404c47:	e8 24 6d 00 00       	callq  40b970 <__ctype_b_loc@plt+0x9950>
  404c4c:	48 89 c3             	mov    %rax,%rbx
  404c4f:	48 89 df             	mov    %rbx,%rdi
  404c52:	e8 f9 6c 00 00       	callq  40b950 <__ctype_b_loc@plt+0x9930>
  404c57:	bf 32 2f 42 00       	mov    $0x422f32,%edi
  404c5c:	be 3d 2f 42 00       	mov    $0x422f3d,%esi
  404c61:	31 c0                	xor    %eax,%eax
  404c63:	4c 89 f2             	mov    %r14,%rdx
  404c66:	e8 c5 69 00 00       	callq  40b630 <__ctype_b_loc@plt+0x9610>
  404c6b:	48 89 df             	mov    %rbx,%rdi
  404c6e:	48 89 c6             	mov    %rax,%rsi
  404c71:	e8 0a 70 00 00       	callq  40bc80 <__ctype_b_loc@plt+0x9c60>
  404c76:	e9 d5 00 00 00       	jmpq   404d50 <__ctype_b_loc@plt+0x2d30>
  404c7b:	8b 05 0f 47 22 00    	mov    0x22470f(%rip),%eax        # 629390 <_fini@@Base+0x20d16c>
  404c81:	89 05 41 46 22 00    	mov    %eax,0x224641(%rip)        # 6292c8 <_fini@@Base+0x20d0a4>
  404c87:	89 05 33 46 22 00    	mov    %eax,0x224633(%rip)        # 6292c0 <_fini@@Base+0x20d09c>
  404c8d:	8b 0d 01 47 22 00    	mov    0x224701(%rip),%ecx        # 629394 <_fini@@Base+0x20d170>
  404c93:	89 0d 2b 46 22 00    	mov    %ecx,0x22462b(%rip)        # 6292c4 <_fini@@Base+0x20d0a0>
  404c99:	8b 15 19 48 22 00    	mov    0x224819(%rip),%edx        # 6294b8 <stderr@@GLIBC_2.2.5+0xf8>
  404c9f:	8d 34 0a             	lea    (%rdx,%rcx,1),%esi
  404ca2:	8d 4c 0a ff          	lea    -0x1(%rdx,%rcx,1),%ecx
  404ca6:	89 0d 20 46 22 00    	mov    %ecx,0x224620(%rip)        # 6292cc <_fini@@Base+0x20d0a8>
  404cac:	89 35 e2 46 22 00    	mov    %esi,0x2246e2(%rip)        # 629394 <_fini@@Base+0x20d170>
  404cb2:	ff c0                	inc    %eax
  404cb4:	89 05 d6 46 22 00    	mov    %eax,0x2246d6(%rip)        # 629390 <_fini@@Base+0x20d16c>
  404cba:	e9 91 00 00 00       	jmpq   404d50 <__ctype_b_loc@plt+0x2d30>
  404cbf:	8b 05 cb 46 22 00    	mov    0x2246cb(%rip),%eax        # 629390 <_fini@@Base+0x20d16c>
  404cc5:	89 05 fd 45 22 00    	mov    %eax,0x2245fd(%rip)        # 6292c8 <_fini@@Base+0x20d0a4>
  404ccb:	89 05 ef 45 22 00    	mov    %eax,0x2245ef(%rip)        # 6292c0 <_fini@@Base+0x20d09c>
  404cd1:	8b 05 bd 46 22 00    	mov    0x2246bd(%rip),%eax        # 629394 <_fini@@Base+0x20d170>
  404cd7:	89 05 e7 45 22 00    	mov    %eax,0x2245e7(%rip)        # 6292c4 <_fini@@Base+0x20d0a0>
  404cdd:	48 63 35 d4 47 22 00 	movslq 0x2247d4(%rip),%rsi        # 6294b8 <stderr@@GLIBC_2.2.5+0xf8>
  404ce4:	8d 0c 06             	lea    (%rsi,%rax,1),%ecx
  404ce7:	8d 44 06 ff          	lea    -0x1(%rsi,%rax,1),%eax
  404ceb:	89 05 db 45 22 00    	mov    %eax,0x2245db(%rip)        # 6292cc <_fini@@Base+0x20d0a8>
  404cf1:	89 0d 9d 46 22 00    	mov    %ecx,0x22469d(%rip)        # 629394 <_fini@@Base+0x20d170>
  404cf7:	48 8b 3d b2 47 22 00 	mov    0x2247b2(%rip),%rdi        # 6294b0 <stderr@@GLIBC_2.2.5+0xf0>
  404cfe:	48 8b 0d db 46 22 00 	mov    0x2246db(%rip),%rcx        # 6293e0 <stderr@@GLIBC_2.2.5+0x20>
  404d05:	ba 01 00 00 00       	mov    $0x1,%edx
  404d0a:	e8 b1 d2 ff ff       	callq  401fc0 <fwrite@plt>
  404d0f:	eb 3f                	jmp    404d50 <__ctype_b_loc@plt+0x2d30>
  404d11:	8b 05 79 46 22 00    	mov    0x224679(%rip),%eax        # 629390 <_fini@@Base+0x20d16c>
  404d17:	89 05 ab 45 22 00    	mov    %eax,0x2245ab(%rip)        # 6292c8 <_fini@@Base+0x20d0a4>
  404d1d:	89 05 9d 45 22 00    	mov    %eax,0x22459d(%rip)        # 6292c0 <_fini@@Base+0x20d09c>
  404d23:	8b 05 6b 46 22 00    	mov    0x22466b(%rip),%eax        # 629394 <_fini@@Base+0x20d170>
  404d29:	89 05 95 45 22 00    	mov    %eax,0x224595(%rip)        # 6292c4 <_fini@@Base+0x20d0a0>
  404d2f:	8b 0d 83 47 22 00    	mov    0x224783(%rip),%ecx        # 6294b8 <stderr@@GLIBC_2.2.5+0xf8>
  404d35:	8d 14 01             	lea    (%rcx,%rax,1),%edx
  404d38:	8d 44 01 ff          	lea    -0x1(%rcx,%rax,1),%eax
  404d3c:	89 05 8a 45 22 00    	mov    %eax,0x22458a(%rip)        # 6292cc <_fini@@Base+0x20d0a8>
  404d42:	89 15 4c 46 22 00    	mov    %edx,0x22464c(%rip)        # 629394 <_fini@@Base+0x20d170>
  404d48:	0f 1f 84 00 00 00 00 	nopl   0x0(%rax,%rax,1)
  404d4f:	00 
  404d50:	48 8b 1d c1 46 22 00 	mov    0x2246c1(%rip),%rbx        # 629418 <stderr@@GLIBC_2.2.5+0x58>
  404d57:	8a 05 c3 46 22 00    	mov    0x2246c3(%rip),%al        # 629420 <stderr@@GLIBC_2.2.5+0x60>
  404d5d:	88 03                	mov    %al,(%rbx)
  404d5f:	8b 35 9b 46 22 00    	mov    0x22469b(%rip),%esi        # 629400 <stderr@@GLIBC_2.2.5+0x40>
  404d65:	48 8b 05 8c 46 22 00 	mov    0x22468c(%rip),%rax        # 6293f8 <stderr@@GLIBC_2.2.5+0x38>
  404d6c:	48 8d 50 04          	lea    0x4(%rax),%rdx
  404d70:	48 89 15 b1 46 22 00 	mov    %rdx,0x2246b1(%rip)        # 629428 <stderr@@GLIBC_2.2.5+0x68>
  404d77:	89 30                	mov    %esi,(%rax)
  404d79:	48 89 dd             	mov    %rbx,%rbp
  404d7c:	eb 22                	jmp    404da0 <__ctype_b_loc@plt+0x2d80>
  404d7e:	48 ff c3             	inc    %rbx
  404d81:	48 89 1d 90 46 22 00 	mov    %rbx,0x224690(%rip)        # 629418 <stderr@@GLIBC_2.2.5+0x58>
  404d88:	eb 16                	jmp    404da0 <__ctype_b_loc@plt+0x2d80>
  404d8a:	4a 8d 14 82          	lea    (%rdx,%r8,4),%rdx
  404d8e:	48 89 15 93 46 22 00 	mov    %rdx,0x224693(%rip)        # 629428 <stderr@@GLIBC_2.2.5+0x68>
  404d95:	66 66 2e 0f 1f 84 00 	data16 nopw %cs:0x0(%rax,%rax,1)
  404d9c:	00 00 00 00 
  404da0:	0f b6 03             	movzbl (%rbx),%eax
  404da3:	48 8d 80 c0 16 42 00 	lea    0x4216c0(%rax),%rax
  404daa:	eb 0b                	jmp    404db7 <__ctype_b_loc@plt+0x2d97>
  404dac:	0f 1f 40 00          	nopl   0x0(%rax)
  404db0:	48 8d 80 10 22 42 00 	lea    0x422210(%rax),%rax
  404db7:	0f b6 00             	movzbl (%rax),%eax
  404dba:	66 0f 1f 44 00 00    	nopw   0x0(%rax,%rax,1)
  404dc0:	48 63 ce             	movslq %esi,%rcx
  404dc3:	48 0f bf b4 09 50 1e 	movswq 0x421e50(%rcx,%rcx,1),%rsi
  404dca:	42 00 
  404dcc:	48 01 c6             	add    %rax,%rsi
  404dcf:	0f bf bc 36 c0 17 42 	movswl 0x4217c0(%rsi,%rsi,1),%edi
  404dd6:	00 
  404dd7:	39 cf                	cmp    %ecx,%edi
  404dd9:	74 15                	je     404df0 <__ctype_b_loc@plt+0x2dd0>
  404ddb:	0f bf b4 09 30 20 42 	movswl 0x422030(%rcx,%rcx,1),%esi
  404de2:	00 
  404de3:	81 fe db 00 00 00    	cmp    $0xdb,%esi
  404de9:	7c d5                	jl     404dc0 <__ctype_b_loc@plt+0x2da0>
  404deb:	eb c3                	jmp    404db0 <__ctype_b_loc@plt+0x2d90>
  404ded:	0f 1f 00             	nopl   (%rax)
  404df0:	48 0f bf b4 36 50 22 	movswq 0x422250(%rsi,%rsi,1),%rsi
  404df7:	42 00 
  404df9:	48 8d 4a 04          	lea    0x4(%rdx),%rcx
  404dfd:	48 89 0d 24 46 22 00 	mov    %rcx,0x224624(%rip)        # 629428 <stderr@@GLIBC_2.2.5+0x68>
  404e04:	89 32                	mov    %esi,(%rdx)
  404e06:	48 ff c3             	inc    %rbx
  404e09:	0f b7 84 36 50 1e 42 	movzwl 0x421e50(%rsi,%rsi,1),%eax
  404e10:	00 
  404e11:	3d 0e 03 00 00       	cmp    $0x30e,%eax
  404e16:	48 89 ca             	mov    %rcx,%rdx
  404e19:	75 85                	jne    404da0 <__ctype_b_loc@plt+0x2d80>
  404e1b:	eb 13                	jmp    404e30 <__ctype_b_loc@plt+0x2e10>
  404e1d:	4a 8d 0c 81          	lea    (%rcx,%r8,4),%rcx
  404e21:	48 89 0d 00 46 22 00 	mov    %rcx,0x224600(%rip)        # 629428 <stderr@@GLIBC_2.2.5+0x68>
  404e28:	0f 1f 84 00 00 00 00 	nopl   0x0(%rax,%rax,1)
  404e2f:	00 
  404e30:	49 89 ee             	mov    %rbp,%r14
  404e33:	48 8d 41 fc          	lea    -0x4(%rcx),%rax
  404e37:	48 89 05 ea 45 22 00 	mov    %rax,0x2245ea(%rip)        # 629428 <stderr@@GLIBC_2.2.5+0x68>
  404e3e:	4c 63 79 fc          	movslq -0x4(%rcx),%r15
  404e42:	eb 25                	jmp    404e69 <__ctype_b_loc@plt+0x2e49>
  404e44:	66 66 66 2e 0f 1f 84 	data16 data16 nopw %cs:0x0(%rax,%rax,1)
  404e4b:	00 00 00 00 00 
  404e50:	48 ff cb             	dec    %rbx
  404e53:	48 8b 05 ce 45 22 00 	mov    0x2245ce(%rip),%rax        # 629428 <stderr@@GLIBC_2.2.5+0x68>
  404e5a:	48 8d 48 fc          	lea    -0x4(%rax),%rcx
  404e5e:	48 89 0d c3 45 22 00 	mov    %rcx,0x2245c3(%rip)        # 629428 <stderr@@GLIBC_2.2.5+0x68>
  404e65:	4c 63 78 fc          	movslq -0x4(%rax),%r15
  404e69:	43 0f bf 8c 3f e0 28 	movswl 0x4228e0(%r15,%r15,1),%ecx
  404e70:	42 00 
  404e72:	85 c9                	test   %ecx,%ecx
  404e74:	75 2a                	jne    404ea0 <__ctype_b_loc@plt+0x2e80>
  404e76:	eb d8                	jmp    404e50 <__ctype_b_loc@plt+0x2e30>
  404e78:	8a 05 a2 45 22 00    	mov    0x2245a2(%rip),%al        # 629420 <stderr@@GLIBC_2.2.5+0x60>
  404e7e:	88 03                	mov    %al,(%rbx)
  404e80:	48 8b 1d b1 45 22 00 	mov    0x2245b1(%rip),%rbx        # 629438 <stderr@@GLIBC_2.2.5+0x78>
  404e87:	8b 0d a3 45 22 00    	mov    0x2245a3(%rip),%ecx        # 629430 <stderr@@GLIBC_2.2.5+0x70>
  404e8d:	ff c1                	inc    %ecx
  404e8f:	85 c9                	test   %ecx,%ecx
  404e91:	74 bd                	je     404e50 <__ctype_b_loc@plt+0x2e30>
  404e93:	66 66 66 66 2e 0f 1f 	data16 data16 data16 nopw %cs:0x0(%rax,%rax,1)
  404e9a:	84 00 00 00 00 00 
  404ea0:	49 63 c7             	movslq %r15d,%rax
  404ea3:	0f bf 84 00 e2 28 42 	movswl 0x4228e2(%rax,%rax,1),%eax
  404eaa:	00 
  404eab:	39 c1                	cmp    %eax,%ecx
  404ead:	7d a1                	jge    404e50 <__ctype_b_loc@plt+0x2e30>
  404eaf:	89 0d 7b 45 22 00    	mov    %ecx,0x22457b(%rip)        # 629430 <stderr@@GLIBC_2.2.5+0x70>
  404eb5:	48 63 c1             	movslq %ecx,%rax
  404eb8:	0f bf 84 00 a0 2a 42 	movswl 0x422aa0(%rax,%rax,1),%eax
  404ebf:	00 
  404ec0:	48 89 1d 71 45 22 00 	mov    %rbx,0x224571(%rip)        # 629438 <stderr@@GLIBC_2.2.5+0x78>
  404ec7:	4c 89 35 e2 45 22 00 	mov    %r14,0x2245e2(%rip)        # 6294b0 <stderr@@GLIBC_2.2.5+0xf0>
  404ece:	89 da                	mov    %ebx,%edx
  404ed0:	44 29 f2             	sub    %r14d,%edx
  404ed3:	89 15 df 45 22 00    	mov    %edx,0x2245df(%rip)        # 6294b8 <stderr@@GLIBC_2.2.5+0xf8>
  404ed9:	8a 13                	mov    (%rbx),%dl
  404edb:	88 15 3f 45 22 00    	mov    %dl,0x22453f(%rip)        # 629420 <stderr@@GLIBC_2.2.5+0x60>
  404ee1:	c6 03 00             	movb   $0x0,(%rbx)
  404ee4:	48 89 1d 2d 45 22 00 	mov    %rbx,0x22452d(%rip)        # 629418 <stderr@@GLIBC_2.2.5+0x58>
  404eeb:	83 f9 01             	cmp    $0x1,%ecx
  404eee:	0f 84 8c 00 00 00    	je     404f80 <__ctype_b_loc@plt+0x2f60>
  404ef4:	48 63 c8             	movslq %eax,%rcx
  404ef7:	83 3c 8d f0 2c 42 00 	cmpl   $0x0,0x422cf0(,%rcx,4)
  404efe:	00 
  404eff:	0f 84 7b 00 00 00    	je     404f80 <__ctype_b_loc@plt+0x2f60>
  404f05:	8b 3d ad 45 22 00    	mov    0x2245ad(%rip),%edi        # 6294b8 <stderr@@GLIBC_2.2.5+0xf8>
  404f0b:	85 ff                	test   %edi,%edi
  404f0d:	7e 71                	jle    404f80 <__ctype_b_loc@plt+0x2f60>
  404f0f:	48 63 cf             	movslq %edi,%rcx
  404f12:	48 8b 15 97 45 22 00 	mov    0x224597(%rip),%rdx        # 6294b0 <stderr@@GLIBC_2.2.5+0xf0>
  404f19:	f6 c1 01             	test   $0x1,%cl
  404f1c:	75 09                	jne    404f27 <__ctype_b_loc@plt+0x2f07>
  404f1e:	31 f6                	xor    %esi,%esi
  404f20:	83 ff 01             	cmp    $0x1,%edi
  404f23:	74 5b                	je     404f80 <__ctype_b_loc@plt+0x2f60>
  404f25:	eb 19                	jmp    404f40 <__ctype_b_loc@plt+0x2f20>
  404f27:	80 3a 0a             	cmpb   $0xa,(%rdx)
  404f2a:	75 06                	jne    404f32 <__ctype_b_loc@plt+0x2f12>
  404f2c:	ff 05 5e 44 22 00    	incl   0x22445e(%rip)        # 629390 <_fini@@Base+0x20d16c>
  404f32:	be 01 00 00 00       	mov    $0x1,%esi
  404f37:	83 ff 01             	cmp    $0x1,%edi
  404f3a:	74 44                	je     404f80 <__ctype_b_loc@plt+0x2f60>
  404f3c:	0f 1f 40 00          	nopl   0x0(%rax)
  404f40:	80 3c 32 0a          	cmpb   $0xa,(%rdx,%rsi,1)
  404f44:	75 06                	jne    404f4c <__ctype_b_loc@plt+0x2f2c>
  404f46:	ff 05 44 44 22 00    	incl   0x224444(%rip)        # 629390 <_fini@@Base+0x20d16c>
  404f4c:	80 7c 32 01 0a       	cmpb   $0xa,0x1(%rdx,%rsi,1)
  404f51:	75 06                	jne    404f59 <__ctype_b_loc@plt+0x2f39>
  404f53:	ff 05 37 44 22 00    	incl   0x224437(%rip)        # 629390 <_fini@@Base+0x20d16c>
  404f59:	48 83 c6 02          	add    $0x2,%rsi
  404f5d:	48 39 ce             	cmp    %rcx,%rsi
  404f60:	7c de                	jl     404f40 <__ctype_b_loc@plt+0x2f20>
  404f62:	eb 1c                	jmp    404f80 <__ctype_b_loc@plt+0x2f60>
  404f64:	48 89 2d ad 44 22 00 	mov    %rbp,0x2244ad(%rip)        # 629418 <stderr@@GLIBC_2.2.5+0x58>
  404f6b:	8b 05 8f 44 22 00    	mov    0x22448f(%rip),%eax        # 629400 <stderr@@GLIBC_2.2.5+0x40>
  404f71:	8d 48 ff             	lea    -0x1(%rax),%ecx
  404f74:	c1 e9 1f             	shr    $0x1f,%ecx
  404f77:	8d 44 08 ff          	lea    -0x1(%rax,%rcx,1),%eax
  404f7b:	d1 f8                	sar    %eax
  404f7d:	83 c0 49             	add    $0x49,%eax
  404f80:	ff c8                	dec    %eax
  404f82:	83 f8 49             	cmp    $0x49,%eax
  404f85:	0f 87 e8 1d 00 00    	ja     406d73 <__ctype_b_loc@plt+0x4d53>
  404f8b:	ff 24 c5 70 14 42 00 	jmpq   *0x421470(,%rax,8)
  404f92:	4c 8b 2d 17 45 22 00 	mov    0x224517(%rip),%r13        # 6294b0 <stderr@@GLIBC_2.2.5+0xf0>
  404f99:	8a 05 81 44 22 00    	mov    0x224481(%rip),%al        # 629420 <stderr@@GLIBC_2.2.5+0x60>
  404f9f:	88 03                	mov    %al,(%rbx)
  404fa1:	4c 8b 0d 60 44 22 00 	mov    0x224460(%rip),%r9        # 629408 <stderr@@GLIBC_2.2.5+0x48>
  404fa8:	4c 8b 05 61 44 22 00 	mov    0x224461(%rip),%r8        # 629410 <stderr@@GLIBC_2.2.5+0x50>
  404faf:	4b 8b 14 c1          	mov    (%r9,%r8,8),%rdx
  404fb3:	83 7a 38 00          	cmpl   $0x0,0x38(%rdx)
  404fb7:	74 08                	je     404fc1 <__ctype_b_loc@plt+0x2fa1>
  404fb9:	8b 05 81 44 22 00    	mov    0x224481(%rip),%eax        # 629440 <stderr@@GLIBC_2.2.5+0x80>
  404fbf:	eb 29                	jmp    404fea <__ctype_b_loc@plt+0x2fca>
  404fc1:	8b 42 1c             	mov    0x1c(%rdx),%eax
  404fc4:	89 05 76 44 22 00    	mov    %eax,0x224476(%rip)        # 629440 <stderr@@GLIBC_2.2.5+0x80>
  404fca:	48 8b 0d 07 44 22 00 	mov    0x224407(%rip),%rcx        # 6293d8 <stderr@@GLIBC_2.2.5+0x18>
  404fd1:	48 89 0a             	mov    %rcx,(%rdx)
  404fd4:	4b 8b 0c c1          	mov    (%r9,%r8,8),%rcx
  404fd8:	c7 41 38 01 00 00 00 	movl   $0x1,0x38(%rcx)
  404fdf:	4c 8b 0d 22 44 22 00 	mov    0x224422(%rip),%r9        # 629408 <stderr@@GLIBC_2.2.5+0x48>
  404fe6:	4b 8b 14 c1          	mov    (%r9,%r8,8),%rdx
  404fea:	48 8b 3d 27 44 22 00 	mov    0x224427(%rip),%rdi        # 629418 <stderr@@GLIBC_2.2.5+0x58>
  404ff1:	48 8b 4a 08          	mov    0x8(%rdx),%rcx
  404ff5:	48 63 f0             	movslq %eax,%rsi
  404ff8:	48 8d 2c 31          	lea    (%rcx,%rsi,1),%rbp
  404ffc:	48 39 ef             	cmp    %rbp,%rdi
  404fff:	48 8b 2d aa 44 22 00 	mov    0x2244aa(%rip),%rbp        # 6294b0 <stderr@@GLIBC_2.2.5+0xf0>
  405006:	0f 86 f8 02 00 00    	jbe    405304 <__ctype_b_loc@plt+0x32e4>
  40500c:	48 8d 74 31 01       	lea    0x1(%rcx,%rsi,1),%rsi
  405011:	48 39 f7             	cmp    %rsi,%rdi
  405014:	0f 87 81 1d 00 00    	ja     406d9b <__ctype_b_loc@plt+0x4d7b>
  40501a:	48 29 ef             	sub    %rbp,%rdi
  40501d:	83 7a 34 00          	cmpl   $0x0,0x34(%rdx)
  405021:	4c 89 2c 24          	mov    %r13,(%rsp)
  405025:	0f 84 e8 00 00 00    	je     405113 <__ctype_b_loc@plt+0x30f3>
  40502b:	b8 fe ff ff ff       	mov    $0xfffffffe,%eax
  405030:	4c 8d 64 07 01       	lea    0x1(%rdi,%rax,1),%r12
  405035:	45 85 e4             	test   %r12d,%r12d
  405038:	0f 8e b4 00 00 00    	jle    4050f2 <__ctype_b_loc@plt+0x30d2>
  40503e:	8d 34 07             	lea    (%rdi,%rax,1),%esi
  405041:	48 ff c6             	inc    %rsi
  405044:	48 83 fe 20          	cmp    $0x20,%rsi
  405048:	72 2b                	jb     405075 <__ctype_b_loc@plt+0x3055>
  40504a:	44 8d 57 1f          	lea    0x1f(%rdi),%r10d
  40504e:	41 83 e2 1f          	and    $0x1f,%r10d
  405052:	4c 29 d6             	sub    %r10,%rsi
  405055:	74 1e                	je     405075 <__ctype_b_loc@plt+0x3055>
  405057:	01 c7                	add    %eax,%edi
  405059:	48 8d 44 3d 01       	lea    0x1(%rbp,%rdi,1),%rax
  40505e:	48 39 c1             	cmp    %rax,%rcx
  405061:	0f 83 f8 01 00 00    	jae    40525f <__ctype_b_loc@plt+0x323f>
  405067:	48 8d 44 39 01       	lea    0x1(%rcx,%rdi,1),%rax
  40506c:	48 39 c5             	cmp    %rax,%rbp
  40506f:	0f 83 ea 01 00 00    	jae    40525f <__ctype_b_loc@plt+0x323f>
  405075:	31 f6                	xor    %esi,%esi
  405077:	48 89 cf             	mov    %rcx,%rdi
  40507a:	48 89 e8             	mov    %rbp,%rax
  40507d:	44 89 e2             	mov    %r12d,%edx
  405080:	29 f2                	sub    %esi,%edx
  405082:	41 8d 6c 24 ff       	lea    -0x1(%r12),%ebp
  405087:	29 f5                	sub    %esi,%ebp
  405089:	83 e2 07             	and    $0x7,%edx
  40508c:	74 13                	je     4050a1 <__ctype_b_loc@plt+0x3081>
  40508e:	f7 da                	neg    %edx
  405090:	0f b6 08             	movzbl (%rax),%ecx
  405093:	48 ff c0             	inc    %rax
  405096:	88 0f                	mov    %cl,(%rdi)
  405098:	48 ff c7             	inc    %rdi
  40509b:	ff c6                	inc    %esi
  40509d:	ff c2                	inc    %edx
  40509f:	75 ef                	jne    405090 <__ctype_b_loc@plt+0x3070>
  4050a1:	83 fd 07             	cmp    $0x7,%ebp
  4050a4:	72 48                	jb     4050ee <__ctype_b_loc@plt+0x30ce>
  4050a6:	44 89 e1             	mov    %r12d,%ecx
  4050a9:	29 f1                	sub    %esi,%ecx
  4050ab:	0f b6 10             	movzbl (%rax),%edx
  4050ae:	88 17                	mov    %dl,(%rdi)
  4050b0:	0f b6 50 01          	movzbl 0x1(%rax),%edx
  4050b4:	88 57 01             	mov    %dl,0x1(%rdi)
  4050b7:	0f b6 50 02          	movzbl 0x2(%rax),%edx
  4050bb:	88 57 02             	mov    %dl,0x2(%rdi)
  4050be:	0f b6 50 03          	movzbl 0x3(%rax),%edx
  4050c2:	88 57 03             	mov    %dl,0x3(%rdi)
  4050c5:	0f b6 50 04          	movzbl 0x4(%rax),%edx
  4050c9:	88 57 04             	mov    %dl,0x4(%rdi)
  4050cc:	0f b6 50 05          	movzbl 0x5(%rax),%edx
  4050d0:	88 57 05             	mov    %dl,0x5(%rdi)
  4050d3:	0f b6 50 06          	movzbl 0x6(%rax),%edx
  4050d7:	88 57 06             	mov    %dl,0x6(%rdi)
  4050da:	0f b6 50 07          	movzbl 0x7(%rax),%edx
  4050de:	88 57 07             	mov    %dl,0x7(%rdi)
  4050e1:	48 83 c0 08          	add    $0x8,%rax
  4050e5:	48 83 c7 08          	add    $0x8,%rdi
  4050e9:	83 c1 f8             	add    $0xfffffff8,%ecx
  4050ec:	75 bd                	jne    4050ab <__ctype_b_loc@plt+0x308b>
  4050ee:	4b 8b 14 c1          	mov    (%r9,%r8,8),%rdx
  4050f2:	83 7a 38 02          	cmpl   $0x2,0x38(%rdx)
  4050f6:	75 38                	jne    405130 <__ctype_b_loc@plt+0x3110>
  4050f8:	c7 05 3e 43 22 00 00 	movl   $0x0,0x22433e(%rip)        # 629440 <stderr@@GLIBC_2.2.5+0x80>
  4050ff:	00 00 00 
  405102:	c7 42 1c 00 00 00 00 	movl   $0x0,0x1c(%rdx)
  405109:	45 85 e4             	test   %r12d,%r12d
  40510c:	75 75                	jne    405183 <__ctype_b_loc@plt+0x3163>
  40510e:	e9 81 00 00 00       	jmpq   405194 <__ctype_b_loc@plt+0x3174>
  405113:	45 31 ed             	xor    %r13d,%r13d
  405116:	48 83 ff 01          	cmp    $0x1,%rdi
  40511a:	41 0f 95 c5          	setne  %r13b
  40511e:	41 ff c5             	inc    %r13d
  405121:	41 83 fd 01          	cmp    $0x1,%r13d
  405125:	0f 84 39 fe ff ff    	je     404f64 <__ctype_b_loc@plt+0x2f44>
  40512b:	e9 13 03 00 00       	jmpq   405443 <__ctype_b_loc@plt+0x3423>
  405130:	8b 42 18             	mov    0x18(%rdx),%eax
  405133:	44 29 e0             	sub    %r12d,%eax
  405136:	83 f8 01             	cmp    $0x1,%eax
  405139:	0f 8e 66 1c 00 00    	jle    406da5 <__ctype_b_loc@plt+0x4d85>
  40513f:	ff c8                	dec    %eax
  405141:	3d 01 20 00 00       	cmp    $0x2001,%eax
  405146:	be 00 20 00 00       	mov    $0x2000,%esi
  40514b:	0f 4c f0             	cmovl  %eax,%esi
  40514e:	49 63 fc             	movslq %r12d,%rdi
  405151:	48 03 7a 08          	add    0x8(%rdx),%rdi
  405155:	e8 26 f3 ff ff       	callq  404480 <__ctype_b_loc@plt+0x2460>
  40515a:	48 8b 0d a7 42 22 00 	mov    0x2242a7(%rip),%rcx        # 629408 <stderr@@GLIBC_2.2.5+0x48>
  405161:	48 8b 15 a8 42 22 00 	mov    0x2242a8(%rip),%rdx        # 629410 <stderr@@GLIBC_2.2.5+0x50>
  405168:	48 8b 14 d1          	mov    (%rcx,%rdx,8),%rdx
  40516c:	89 05 ce 42 22 00    	mov    %eax,0x2242ce(%rip)        # 629440 <stderr@@GLIBC_2.2.5+0x80>
  405172:	89 42 1c             	mov    %eax,0x1c(%rdx)
  405175:	85 c0                	test   %eax,%eax
  405177:	74 05                	je     40517e <__ctype_b_loc@plt+0x315e>
  405179:	45 31 ed             	xor    %r13d,%r13d
  40517c:	eb 40                	jmp    4051be <__ctype_b_loc@plt+0x319e>
  40517e:	45 85 e4             	test   %r12d,%r12d
  405181:	74 11                	je     405194 <__ctype_b_loc@plt+0x3174>
  405183:	c7 42 38 02 00 00 00 	movl   $0x2,0x38(%rdx)
  40518a:	41 bd 02 00 00 00    	mov    $0x2,%r13d
  405190:	31 c0                	xor    %eax,%eax
  405192:	eb 2a                	jmp    4051be <__ctype_b_loc@plt+0x319e>
  405194:	48 8b 3d 3d 42 22 00 	mov    0x22423d(%rip),%rdi        # 6293d8 <stderr@@GLIBC_2.2.5+0x18>
  40519b:	e8 b0 1e 00 00       	callq  407050 <__ctype_b_loc@plt+0x5030>
  4051a0:	8b 05 9a 42 22 00    	mov    0x22429a(%rip),%eax        # 629440 <stderr@@GLIBC_2.2.5+0x80>
  4051a6:	48 8b 0d 5b 42 22 00 	mov    0x22425b(%rip),%rcx        # 629408 <stderr@@GLIBC_2.2.5+0x48>
  4051ad:	48 8b 15 5c 42 22 00 	mov    0x22425c(%rip),%rdx        # 629410 <stderr@@GLIBC_2.2.5+0x50>
  4051b4:	48 8b 14 d1          	mov    (%rcx,%rdx,8),%rdx
  4051b8:	41 bd 01 00 00 00    	mov    $0x1,%r13d
  4051be:	42 8d 2c 20          	lea    (%rax,%r12,1),%ebp
  4051c2:	3b 6a 18             	cmp    0x18(%rdx),%ebp
  4051c5:	7e 45                	jle    40520c <__ctype_b_loc@plt+0x31ec>
  4051c7:	d1 f8                	sar    %eax
  4051c9:	01 c5                	add    %eax,%ebp
  4051cb:	48 8b 7a 08          	mov    0x8(%rdx),%rdi
  4051cf:	48 63 f5             	movslq %ebp,%rsi
  4051d2:	e8 19 cd ff ff       	callq  401ef0 <realloc@plt>
  4051d7:	48 8b 0d 2a 42 22 00 	mov    0x22422a(%rip),%rcx        # 629408 <stderr@@GLIBC_2.2.5+0x48>
  4051de:	48 8b 15 2b 42 22 00 	mov    0x22422b(%rip),%rdx        # 629410 <stderr@@GLIBC_2.2.5+0x50>
  4051e5:	48 8b 34 d1          	mov    (%rcx,%rdx,8),%rsi
  4051e9:	48 89 46 08          	mov    %rax,0x8(%rsi)
  4051ed:	48 8b 04 d1          	mov    (%rcx,%rdx,8),%rax
  4051f1:	48 8b 48 08          	mov    0x8(%rax),%rcx
  4051f5:	48 85 c9             	test   %rcx,%rcx
  4051f8:	0f 84 b1 1b 00 00    	je     406daf <__ctype_b_loc@plt+0x4d8f>
  4051fe:	83 c5 fe             	add    $0xfffffffe,%ebp
  405201:	89 68 18             	mov    %ebp,0x18(%rax)
  405204:	8b 05 36 42 22 00    	mov    0x224236(%rip),%eax        # 629440 <stderr@@GLIBC_2.2.5+0x80>
  40520a:	eb 04                	jmp    405210 <__ctype_b_loc@plt+0x31f0>
  40520c:	48 8b 4a 08          	mov    0x8(%rdx),%rcx
  405210:	44 01 e0             	add    %r12d,%eax
  405213:	89 05 27 42 22 00    	mov    %eax,0x224227(%rip)        # 629440 <stderr@@GLIBC_2.2.5+0x80>
  405219:	48 98                	cltq   
  40521b:	c6 04 01 00          	movb   $0x0,(%rcx,%rax,1)
  40521f:	4c 8b 0d e2 41 22 00 	mov    0x2241e2(%rip),%r9        # 629408 <stderr@@GLIBC_2.2.5+0x48>
  405226:	4c 8b 05 e3 41 22 00 	mov    0x2241e3(%rip),%r8        # 629410 <stderr@@GLIBC_2.2.5+0x50>
  40522d:	4b 8b 04 c1          	mov    (%r9,%r8,8),%rax
  405231:	48 8b 48 08          	mov    0x8(%rax),%rcx
  405235:	48 63 05 04 42 22 00 	movslq 0x224204(%rip),%rax        # 629440 <stderr@@GLIBC_2.2.5+0x80>
  40523c:	c6 44 01 01 00       	movb   $0x0,0x1(%rcx,%rax,1)
  405241:	4b 8b 0c c1          	mov    (%r9,%r8,8),%rcx
  405245:	48 8b 69 08          	mov    0x8(%rcx),%rbp
  405249:	48 89 2d 60 42 22 00 	mov    %rbp,0x224260(%rip)        # 6294b0 <stderr@@GLIBC_2.2.5+0xf0>
  405250:	41 83 fd 01          	cmp    $0x1,%r13d
  405254:	0f 84 0a fd ff ff    	je     404f64 <__ctype_b_loc@plt+0x2f44>
  40525a:	e9 e4 01 00 00       	jmpq   405443 <__ctype_b_loc@plt+0x3423>
  40525f:	48 8d 44 35 00       	lea    0x0(%rbp,%rsi,1),%rax
  405264:	48 83 c5 10          	add    $0x10,%rbp
  405268:	48 8d 3c 31          	lea    (%rcx,%rsi,1),%rdi
  40526c:	48 83 c1 10          	add    $0x10,%rcx
  405270:	48 89 f2             	mov    %rsi,%rdx
  405273:	66 0f 10 45 f0       	movupd -0x10(%rbp),%xmm0
  405278:	0f 10 4d 00          	movups 0x0(%rbp),%xmm1
  40527c:	66 0f 11 41 f0       	movupd %xmm0,-0x10(%rcx)
  405281:	0f 11 09             	movups %xmm1,(%rcx)
  405284:	48 83 c5 20          	add    $0x20,%rbp
  405288:	48 83 c1 20          	add    $0x20,%rcx
  40528c:	48 83 c2 e0          	add    $0xffffffffffffffe0,%rdx
  405290:	75 e1                	jne    405273 <__ctype_b_loc@plt+0x3253>
  405292:	4d 85 d2             	test   %r10,%r10
  405295:	0f 85 e2 fd ff ff    	jne    40507d <__ctype_b_loc@plt+0x305d>
  40529b:	e9 4e fe ff ff       	jmpq   4050ee <__ctype_b_loc@plt+0x30ce>
  4052a0:	8b 05 ea 40 22 00    	mov    0x2240ea(%rip),%eax        # 629390 <_fini@@Base+0x20d16c>
  4052a6:	89 05 1c 40 22 00    	mov    %eax,0x22401c(%rip)        # 6292c8 <_fini@@Base+0x20d0a4>
  4052ac:	89 05 0e 40 22 00    	mov    %eax,0x22400e(%rip)        # 6292c0 <_fini@@Base+0x20d09c>
  4052b2:	8b 05 dc 40 22 00    	mov    0x2240dc(%rip),%eax        # 629394 <_fini@@Base+0x20d170>
  4052b8:	89 05 06 40 22 00    	mov    %eax,0x224006(%rip)        # 6292c4 <_fini@@Base+0x20d0a0>
  4052be:	8b 0d f4 41 22 00    	mov    0x2241f4(%rip),%ecx        # 6294b8 <stderr@@GLIBC_2.2.5+0xf8>
  4052c4:	8d 14 01             	lea    (%rcx,%rax,1),%edx
  4052c7:	8d 44 01 ff          	lea    -0x1(%rcx,%rax,1),%eax
  4052cb:	89 05 fb 3f 22 00    	mov    %eax,0x223ffb(%rip)        # 6292cc <_fini@@Base+0x20d0a8>
  4052d1:	89 15 bd 40 22 00    	mov    %edx,0x2240bd(%rip)        # 629394 <_fini@@Base+0x20d170>
  4052d7:	b8 fe fe ff ff       	mov    $0xfffffefe,%eax
  4052dc:	03 05 0a 41 22 00    	add    0x22410a(%rip),%eax        # 6293ec <stderr@@GLIBC_2.2.5+0x2c>
  4052e2:	83 f8 2e             	cmp    $0x2e,%eax
  4052e5:	0f 87 37 1a 00 00    	ja     406d22 <__ctype_b_loc@plt+0x4d02>
  4052eb:	48 b9 3f 03 00 00 00 	movabs $0x40000000033f,%rcx
  4052f2:	40 00 00 
  4052f5:	48 0f a3 c1          	bt     %rax,%rcx
  4052f9:	0f 82 79 fb ff ff    	jb     404e78 <__ctype_b_loc@plt+0x2e58>
  4052ff:	e9 1e 1a 00 00       	jmpq   406d22 <__ctype_b_loc@plt+0x4d02>
  405304:	44 29 eb             	sub    %r13d,%ebx
  405307:	48 c1 e3 20          	shl    $0x20,%rbx
  40530b:	48 89 da             	mov    %rbx,%rdx
  40530e:	48 b8 00 00 00 00 ff 	movabs $0xffffffff00000000,%rax
  405315:	ff ff ff 
  405318:	48 01 c2             	add    %rax,%rdx
  40531b:	48 89 d3             	mov    %rdx,%rbx
  40531e:	48 c1 fb 20          	sar    $0x20,%rbx
  405322:	48 01 eb             	add    %rbp,%rbx
  405325:	48 89 1d ec 40 22 00 	mov    %rbx,0x2240ec(%rip)        # 629418 <stderr@@GLIBC_2.2.5+0x58>
  40532c:	8b 05 ce 40 22 00    	mov    0x2240ce(%rip),%eax        # 629400 <stderr@@GLIBC_2.2.5+0x40>
  405332:	48 8b 35 bf 40 22 00 	mov    0x2240bf(%rip),%rsi        # 6293f8 <stderr@@GLIBC_2.2.5+0x38>
  405339:	48 8d 4e 04          	lea    0x4(%rsi),%rcx
  40533d:	48 89 0d e4 40 22 00 	mov    %rcx,0x2240e4(%rip)        # 629428 <stderr@@GLIBC_2.2.5+0x68>
  405344:	89 06                	mov    %eax,(%rsi)
  405346:	48 85 d2             	test   %rdx,%rdx
  405349:	0f 8e 85 00 00 00    	jle    4053d4 <__ctype_b_loc@plt+0x33b4>
  40534f:	49 89 d8             	mov    %rbx,%r8
  405352:	49 29 e8             	sub    %rbp,%r8
  405355:	49 89 c9             	mov    %rcx,%r9
  405358:	49 89 ea             	mov    %rbp,%r10
  40535b:	41 0f b6 12          	movzbl (%r10),%edx
  40535f:	48 85 d2             	test   %rdx,%rdx
  405362:	74 09                	je     40536d <__ctype_b_loc@plt+0x334d>
  405364:	48 8d 92 c0 16 42 00 	lea    0x4216c0(%rdx),%rdx
  40536b:	eb 04                	jmp    405371 <__ctype_b_loc@plt+0x3351>
  40536d:	b2 01                	mov    $0x1,%dl
  40536f:	eb 02                	jmp    405373 <__ctype_b_loc@plt+0x3353>
  405371:	8a 12                	mov    (%rdx),%dl
  405373:	0f b6 d2             	movzbl %dl,%edx
  405376:	66 2e 0f 1f 84 00 00 	nopw   %cs:0x0(%rax,%rax,1)
  40537d:	00 00 00 
  405380:	48 98                	cltq   
  405382:	48 0f bf b4 00 50 1e 	movswq 0x421e50(%rax,%rax,1),%rsi
  405389:	42 00 
  40538b:	48 01 d6             	add    %rdx,%rsi
  40538e:	0f bf bc 36 c0 17 42 	movswl 0x4217c0(%rsi,%rsi,1),%edi
  405395:	00 
  405396:	39 c7                	cmp    %eax,%edi
  405398:	74 18                	je     4053b2 <__ctype_b_loc@plt+0x3392>
  40539a:	0f bf 84 00 30 20 42 	movswl 0x422030(%rax,%rax,1),%eax
  4053a1:	00 
  4053a2:	3d db 00 00 00       	cmp    $0xdb,%eax
  4053a7:	7c d7                	jl     405380 <__ctype_b_loc@plt+0x3360>
  4053a9:	48 8d 92 10 22 42 00 	lea    0x422210(%rdx),%rdx
  4053b0:	eb bf                	jmp    405371 <__ctype_b_loc@plt+0x3351>
  4053b2:	0f bf 84 36 50 22 42 	movswl 0x422250(%rsi,%rsi,1),%eax
  4053b9:	00 
  4053ba:	41 89 01             	mov    %eax,(%r9)
  4053bd:	49 83 c1 04          	add    $0x4,%r9
  4053c1:	49 ff c2             	inc    %r10
  4053c4:	49 39 da             	cmp    %rbx,%r10
  4053c7:	75 92                	jne    40535b <__ctype_b_loc@plt+0x333b>
  4053c9:	4a 8d 0c 81          	lea    (%rcx,%r8,4),%rcx
  4053cd:	48 89 0d 54 40 22 00 	mov    %rcx,0x224054(%rip)        # 629428 <stderr@@GLIBC_2.2.5+0x68>
  4053d4:	48 63 d0             	movslq %eax,%rdx
  4053d7:	48 0f bf 84 12 50 1e 	movswq 0x421e50(%rdx,%rdx,1),%rax
  4053de:	42 00 
  4053e0:	0f bf b4 00 c2 17 42 	movswl 0x4217c2(%rax,%rax,1),%esi
  4053e7:	00 
  4053e8:	39 d6                	cmp    %edx,%esi
  4053ea:	74 1c                	je     405408 <__ctype_b_loc@plt+0x33e8>
  4053ec:	48 0f bf 94 12 30 20 	movswq 0x422030(%rdx,%rdx,1),%rdx
  4053f3:	42 00 
  4053f5:	48 0f bf 84 12 50 1e 	movswq 0x421e50(%rdx,%rdx,1),%rax
  4053fc:	42 00 
  4053fe:	66 39 94 00 c2 17 42 	cmp    %dx,0x4217c2(%rax,%rax,1)
  405405:	00 
  405406:	75 e4                	jne    4053ec <__ctype_b_loc@plt+0x33cc>
  405408:	48 ff c0             	inc    %rax
  40540b:	0f bf b4 00 50 22 42 	movswl 0x422250(%rax,%rax,1),%esi
  405412:	00 
  405413:	81 fe da 00 00 00    	cmp    $0xda,%esi
  405419:	49 89 ee             	mov    %rbp,%r14
  40541c:	0f 84 11 fa ff ff    	je     404e33 <__ctype_b_loc@plt+0x2e13>
  405422:	48 8d 51 04          	lea    0x4(%rcx),%rdx
  405426:	48 89 15 fb 3f 22 00 	mov    %rdx,0x223ffb(%rip)        # 629428 <stderr@@GLIBC_2.2.5+0x68>
  40542d:	89 31                	mov    %esi,(%rcx)
  40542f:	48 85 c0             	test   %rax,%rax
  405432:	48 89 d1             	mov    %rdx,%rcx
  405435:	49 89 ee             	mov    %rbp,%r14
  405438:	0f 84 f5 f9 ff ff    	je     404e33 <__ctype_b_loc@plt+0x2e13>
  40543e:	e9 3b f9 ff ff       	jmpq   404d7e <__ctype_b_loc@plt+0x2d5e>
  405443:	45 85 ed             	test   %r13d,%r13d
  405446:	0f 84 b9 00 00 00    	je     405505 <__ctype_b_loc@plt+0x34e5>
  40544c:	41 83 fd 02          	cmp    $0x2,%r13d
  405450:	0f 85 fa f8 ff ff    	jne    404d50 <__ctype_b_loc@plt+0x2d30>
  405456:	4b 8b 0c c1          	mov    (%r9,%r8,8),%rcx
  40545a:	48 63 d8             	movslq %eax,%rbx
  40545d:	48 03 59 08          	add    0x8(%rcx),%rbx
  405461:	48 89 1d b0 3f 22 00 	mov    %rbx,0x223fb0(%rip)        # 629418 <stderr@@GLIBC_2.2.5+0x58>
  405468:	8b 15 92 3f 22 00    	mov    0x223f92(%rip),%edx        # 629400 <stderr@@GLIBC_2.2.5+0x40>
  40546e:	48 8b 05 83 3f 22 00 	mov    0x223f83(%rip),%rax        # 6293f8 <stderr@@GLIBC_2.2.5+0x38>
  405475:	48 8d 48 04          	lea    0x4(%rax),%rcx
  405479:	48 89 0d a8 3f 22 00 	mov    %rcx,0x223fa8(%rip)        # 629428 <stderr@@GLIBC_2.2.5+0x68>
  405480:	89 10                	mov    %edx,(%rax)
  405482:	48 39 dd             	cmp    %rbx,%rbp
  405485:	49 89 ee             	mov    %rbp,%r14
  405488:	0f 83 a5 f9 ff ff    	jae    404e33 <__ctype_b_loc@plt+0x2e13>
  40548e:	49 89 d8             	mov    %rbx,%r8
  405491:	49 29 e8             	sub    %rbp,%r8
  405494:	49 89 c9             	mov    %rcx,%r9
  405497:	49 89 ea             	mov    %rbp,%r10
  40549a:	41 0f b6 02          	movzbl (%r10),%eax
  40549e:	48 85 c0             	test   %rax,%rax
  4054a1:	74 09                	je     4054ac <__ctype_b_loc@plt+0x348c>
  4054a3:	48 8d 80 c0 16 42 00 	lea    0x4216c0(%rax),%rax
  4054aa:	eb 04                	jmp    4054b0 <__ctype_b_loc@plt+0x3490>
  4054ac:	b0 01                	mov    $0x1,%al
  4054ae:	eb 02                	jmp    4054b2 <__ctype_b_loc@plt+0x3492>
  4054b0:	8a 00                	mov    (%rax),%al
  4054b2:	0f b6 c0             	movzbl %al,%eax
  4054b5:	48 63 d2             	movslq %edx,%rdx
  4054b8:	48 0f bf b4 12 50 1e 	movswq 0x421e50(%rdx,%rdx,1),%rsi
  4054bf:	42 00 
  4054c1:	48 01 c6             	add    %rax,%rsi
  4054c4:	0f bf bc 36 c0 17 42 	movswl 0x4217c0(%rsi,%rsi,1),%edi
  4054cb:	00 
  4054cc:	39 d7                	cmp    %edx,%edi
  4054ce:	74 19                	je     4054e9 <__ctype_b_loc@plt+0x34c9>
  4054d0:	0f bf 94 12 30 20 42 	movswl 0x422030(%rdx,%rdx,1),%edx
  4054d7:	00 
  4054d8:	81 fa db 00 00 00    	cmp    $0xdb,%edx
  4054de:	7c d5                	jl     4054b5 <__ctype_b_loc@plt+0x3495>
  4054e0:	48 8d 80 10 22 42 00 	lea    0x422210(%rax),%rax
  4054e7:	eb c7                	jmp    4054b0 <__ctype_b_loc@plt+0x3490>
  4054e9:	0f bf 94 36 50 22 42 	movswl 0x422250(%rsi,%rsi,1),%edx
  4054f0:	00 
  4054f1:	41 89 11             	mov    %edx,(%r9)
  4054f4:	49 83 c1 04          	add    $0x4,%r9
  4054f8:	49 ff c2             	inc    %r10
  4054fb:	49 39 da             	cmp    %rbx,%r10
  4054fe:	75 9a                	jne    40549a <__ctype_b_loc@plt+0x347a>
  405500:	e9 18 f9 ff ff       	jmpq   404e1d <__ctype_b_loc@plt+0x2dfd>
  405505:	2b 1c 24             	sub    (%rsp),%ebx
  405508:	48 c1 e3 20          	shl    $0x20,%rbx
  40550c:	48 89 d8             	mov    %rbx,%rax
  40550f:	48 b9 00 00 00 00 ff 	movabs $0xffffffff00000000,%rcx
  405516:	ff ff ff 
  405519:	48 01 c8             	add    %rcx,%rax
  40551c:	48 89 c3             	mov    %rax,%rbx
  40551f:	48 c1 fb 20          	sar    $0x20,%rbx
  405523:	48 01 eb             	add    %rbp,%rbx
  405526:	48 89 1d eb 3e 22 00 	mov    %rbx,0x223eeb(%rip)        # 629418 <stderr@@GLIBC_2.2.5+0x58>
  40552d:	8b 35 cd 3e 22 00    	mov    0x223ecd(%rip),%esi        # 629400 <stderr@@GLIBC_2.2.5+0x40>
  405533:	48 8b 0d be 3e 22 00 	mov    0x223ebe(%rip),%rcx        # 6293f8 <stderr@@GLIBC_2.2.5+0x38>
  40553a:	48 8d 51 04          	lea    0x4(%rcx),%rdx
  40553e:	48 89 15 e3 3e 22 00 	mov    %rdx,0x223ee3(%rip)        # 629428 <stderr@@GLIBC_2.2.5+0x68>
  405545:	89 31                	mov    %esi,(%rcx)
  405547:	48 85 c0             	test   %rax,%rax
  40554a:	0f 8e 50 f8 ff ff    	jle    404da0 <__ctype_b_loc@plt+0x2d80>
  405550:	49 89 d8             	mov    %rbx,%r8
  405553:	49 29 e8             	sub    %rbp,%r8
  405556:	49 89 d1             	mov    %rdx,%r9
  405559:	49 89 ea             	mov    %rbp,%r10
  40555c:	41 0f b6 02          	movzbl (%r10),%eax
  405560:	48 85 c0             	test   %rax,%rax
  405563:	74 09                	je     40556e <__ctype_b_loc@plt+0x354e>
  405565:	48 8d 80 c0 16 42 00 	lea    0x4216c0(%rax),%rax
  40556c:	eb 04                	jmp    405572 <__ctype_b_loc@plt+0x3552>
  40556e:	b0 01                	mov    $0x1,%al
  405570:	eb 02                	jmp    405574 <__ctype_b_loc@plt+0x3554>
  405572:	8a 00                	mov    (%rax),%al
  405574:	0f b6 c0             	movzbl %al,%eax
  405577:	48 63 f6             	movslq %esi,%rsi
  40557a:	48 0f bf 8c 36 50 1e 	movswq 0x421e50(%rsi,%rsi,1),%rcx
  405581:	42 00 
  405583:	48 01 c1             	add    %rax,%rcx
  405586:	0f bf bc 09 c0 17 42 	movswl 0x4217c0(%rcx,%rcx,1),%edi
  40558d:	00 
  40558e:	39 f7                	cmp    %esi,%edi
  405590:	74 19                	je     4055ab <__ctype_b_loc@plt+0x358b>
  405592:	0f bf b4 36 30 20 42 	movswl 0x422030(%rsi,%rsi,1),%esi
  405599:	00 
  40559a:	81 fe db 00 00 00    	cmp    $0xdb,%esi
  4055a0:	7c d5                	jl     405577 <__ctype_b_loc@plt+0x3557>
  4055a2:	48 8d 80 10 22 42 00 	lea    0x422210(%rax),%rax
  4055a9:	eb c7                	jmp    405572 <__ctype_b_loc@plt+0x3552>
  4055ab:	0f bf b4 09 50 22 42 	movswl 0x422250(%rcx,%rcx,1),%esi
  4055b2:	00 
  4055b3:	41 89 31             	mov    %esi,(%r9)
  4055b6:	49 83 c1 04          	add    $0x4,%r9
  4055ba:	49 ff c2             	inc    %r10
  4055bd:	49 39 da             	cmp    %rbx,%r10
  4055c0:	75 9a                	jne    40555c <__ctype_b_loc@plt+0x353c>
  4055c2:	e9 c3 f7 ff ff       	jmpq   404d8a <__ctype_b_loc@plt+0x2d6a>
  4055c7:	8b 05 c3 3d 22 00    	mov    0x223dc3(%rip),%eax        # 629390 <_fini@@Base+0x20d16c>
  4055cd:	89 05 f5 3c 22 00    	mov    %eax,0x223cf5(%rip)        # 6292c8 <_fini@@Base+0x20d0a4>
  4055d3:	89 05 e7 3c 22 00    	mov    %eax,0x223ce7(%rip)        # 6292c0 <_fini@@Base+0x20d09c>
  4055d9:	8b 05 b5 3d 22 00    	mov    0x223db5(%rip),%eax        # 629394 <_fini@@Base+0x20d170>
  4055df:	89 05 df 3c 22 00    	mov    %eax,0x223cdf(%rip)        # 6292c4 <_fini@@Base+0x20d0a0>
  4055e5:	8b 0d cd 3e 22 00    	mov    0x223ecd(%rip),%ecx        # 6294b8 <stderr@@GLIBC_2.2.5+0xf8>
  4055eb:	8d 14 01             	lea    (%rcx,%rax,1),%edx
  4055ee:	8d 44 01 ff          	lea    -0x1(%rcx,%rax,1),%eax
  4055f2:	89 05 d4 3c 22 00    	mov    %eax,0x223cd4(%rip)        # 6292cc <_fini@@Base+0x20d0a8>
  4055f8:	89 15 96 3d 22 00    	mov    %edx,0x223d96(%rip)        # 629394 <_fini@@Base+0x20d170>
  4055fe:	48 8b 1d ab 3e 22 00 	mov    0x223eab(%rip),%rbx        # 6294b0 <stderr@@GLIBC_2.2.5+0xf0>
  405605:	48 89 df             	mov    %rbx,%rdi
  405608:	e8 63 c6 ff ff       	callq  401c70 <strlen@plt>
  40560d:	c6 44 03 ff 00       	movb   $0x0,-0x1(%rbx,%rax,1)
  405612:	48 ff c3             	inc    %rbx
  405615:	48 89 1d 8c 3e 22 00 	mov    %rbx,0x223e8c(%rip)        # 6294a8 <stderr@@GLIBC_2.2.5+0xe8>
  40561c:	c7 05 c6 3d 22 00 04 	movl   $0x104,0x223dc6(%rip)        # 6293ec <stderr@@GLIBC_2.2.5+0x2c>
  405623:	01 00 00 
  405626:	48 8b 05 53 3e 22 00 	mov    0x223e53(%rip),%rax        # 629480 <stderr@@GLIBC_2.2.5+0xc0>
  40562d:	bb 04 01 00 00       	mov    $0x104,%ebx
  405632:	80 78 71 00          	cmpb   $0x0,0x71(%rax)
  405636:	0f 84 69 16 00 00    	je     406ca5 <__ctype_b_loc@plt+0x4c85>
  40563c:	48 8b 15 6d 3e 22 00 	mov    0x223e6d(%rip),%rdx        # 6294b0 <stderr@@GLIBC_2.2.5+0xf0>
  405643:	48 85 d2             	test   %rdx,%rdx
  405646:	0f 84 6a 16 00 00    	je     406cb6 <__ctype_b_loc@plt+0x4c96>
  40564c:	bf 4d 2f 42 00       	mov    $0x422f4d,%edi
  405651:	be 39 2e 42 00       	mov    $0x422e39,%esi
  405656:	e9 30 16 00 00       	jmpq   406c8b <__ctype_b_loc@plt+0x4c6b>
  40565b:	c7 05 2f 3d 22 00 00 	movl   $0x0,0x223d2f(%rip)        # 629394 <_fini@@Base+0x20d170>
  405662:	00 00 00 
  405665:	48 8b 05 14 3e 22 00 	mov    0x223e14(%rip),%rax        # 629480 <stderr@@GLIBC_2.2.5+0xc0>
  40566c:	bb ff ff ff ff       	mov    $0xffffffff,%ebx
  405671:	80 78 70 00          	cmpb   $0x0,0x70(%rax)
  405675:	0f 84 2a 16 00 00    	je     406ca5 <__ctype_b_loc@plt+0x4c85>
  40567b:	31 ff                	xor    %edi,%edi
  40567d:	e8 2e c9 ff ff       	callq  401fb0 <exit@plt>
  405682:	8b 05 08 3d 22 00    	mov    0x223d08(%rip),%eax        # 629390 <_fini@@Base+0x20d16c>
  405688:	89 05 3a 3c 22 00    	mov    %eax,0x223c3a(%rip)        # 6292c8 <_fini@@Base+0x20d0a4>
  40568e:	89 05 2c 3c 22 00    	mov    %eax,0x223c2c(%rip)        # 6292c0 <_fini@@Base+0x20d09c>
  405694:	8b 05 fa 3c 22 00    	mov    0x223cfa(%rip),%eax        # 629394 <_fini@@Base+0x20d170>
  40569a:	89 05 24 3c 22 00    	mov    %eax,0x223c24(%rip)        # 6292c4 <_fini@@Base+0x20d0a0>
  4056a0:	8b 0d 12 3e 22 00    	mov    0x223e12(%rip),%ecx        # 6294b8 <stderr@@GLIBC_2.2.5+0xf8>
  4056a6:	8d 14 01             	lea    (%rcx,%rax,1),%edx
  4056a9:	8d 44 01 ff          	lea    -0x1(%rcx,%rax,1),%eax
  4056ad:	89 05 19 3c 22 00    	mov    %eax,0x223c19(%rip)        # 6292cc <_fini@@Base+0x20d0a8>
  4056b3:	89 15 db 3c 22 00    	mov    %edx,0x223cdb(%rip)        # 629394 <_fini@@Base+0x20d170>
  4056b9:	c7 05 29 3d 22 00 28 	movl   $0x128,0x223d29(%rip)        # 6293ec <stderr@@GLIBC_2.2.5+0x2c>
  4056c0:	01 00 00 
  4056c3:	48 8b 05 b6 3d 22 00 	mov    0x223db6(%rip),%rax        # 629480 <stderr@@GLIBC_2.2.5+0xc0>
  4056ca:	bb 28 01 00 00       	mov    $0x128,%ebx
  4056cf:	80 78 71 00          	cmpb   $0x0,0x71(%rax)
  4056d3:	0f 85 6b 14 00 00    	jne    406b44 <__ctype_b_loc@plt+0x4b24>
  4056d9:	e9 c7 15 00 00       	jmpq   406ca5 <__ctype_b_loc@plt+0x4c85>
  4056de:	8b 05 ac 3c 22 00    	mov    0x223cac(%rip),%eax        # 629390 <_fini@@Base+0x20d16c>
  4056e4:	89 05 de 3b 22 00    	mov    %eax,0x223bde(%rip)        # 6292c8 <_fini@@Base+0x20d0a4>
  4056ea:	89 05 d0 3b 22 00    	mov    %eax,0x223bd0(%rip)        # 6292c0 <_fini@@Base+0x20d09c>
  4056f0:	8b 05 9e 3c 22 00    	mov    0x223c9e(%rip),%eax        # 629394 <_fini@@Base+0x20d170>
  4056f6:	89 05 c8 3b 22 00    	mov    %eax,0x223bc8(%rip)        # 6292c4 <_fini@@Base+0x20d0a0>
  4056fc:	8b 0d b6 3d 22 00    	mov    0x223db6(%rip),%ecx        # 6294b8 <stderr@@GLIBC_2.2.5+0xf8>
  405702:	8d 14 01             	lea    (%rcx,%rax,1),%edx
  405705:	8d 44 01 ff          	lea    -0x1(%rcx,%rax,1),%eax
  405709:	89 05 bd 3b 22 00    	mov    %eax,0x223bbd(%rip)        # 6292cc <_fini@@Base+0x20d0a8>
  40570f:	89 15 7f 3c 22 00    	mov    %edx,0x223c7f(%rip)        # 629394 <_fini@@Base+0x20d170>
  405715:	c7 05 cd 3c 22 00 1b 	movl   $0x11b,0x223ccd(%rip)        # 6293ec <stderr@@GLIBC_2.2.5+0x2c>
  40571c:	01 00 00 
  40571f:	48 8b 05 5a 3d 22 00 	mov    0x223d5a(%rip),%rax        # 629480 <stderr@@GLIBC_2.2.5+0xc0>
  405726:	bb 1b 01 00 00       	mov    $0x11b,%ebx
  40572b:	80 78 71 00          	cmpb   $0x0,0x71(%rax)
  40572f:	0f 85 40 15 00 00    	jne    406c75 <__ctype_b_loc@plt+0x4c55>
  405735:	e9 6b 15 00 00       	jmpq   406ca5 <__ctype_b_loc@plt+0x4c85>
  40573a:	8b 05 50 3c 22 00    	mov    0x223c50(%rip),%eax        # 629390 <_fini@@Base+0x20d16c>
  405740:	89 05 82 3b 22 00    	mov    %eax,0x223b82(%rip)        # 6292c8 <_fini@@Base+0x20d0a4>
  405746:	89 05 74 3b 22 00    	mov    %eax,0x223b74(%rip)        # 6292c0 <_fini@@Base+0x20d09c>
  40574c:	8b 05 42 3c 22 00    	mov    0x223c42(%rip),%eax        # 629394 <_fini@@Base+0x20d170>
  405752:	89 05 6c 3b 22 00    	mov    %eax,0x223b6c(%rip)        # 6292c4 <_fini@@Base+0x20d0a0>
  405758:	8b 0d 5a 3d 22 00    	mov    0x223d5a(%rip),%ecx        # 6294b8 <stderr@@GLIBC_2.2.5+0xf8>
  40575e:	8d 14 01             	lea    (%rcx,%rax,1),%edx
  405761:	8d 44 01 ff          	lea    -0x1(%rcx,%rax,1),%eax
  405765:	89 05 61 3b 22 00    	mov    %eax,0x223b61(%rip)        # 6292cc <_fini@@Base+0x20d0a8>
  40576b:	89 15 23 3c 22 00    	mov    %edx,0x223c23(%rip)        # 629394 <_fini@@Base+0x20d170>
  405771:	c7 05 71 3c 22 00 21 	movl   $0x121,0x223c71(%rip)        # 6293ec <stderr@@GLIBC_2.2.5+0x2c>
  405778:	01 00 00 
  40577b:	48 8b 05 fe 3c 22 00 	mov    0x223cfe(%rip),%rax        # 629480 <stderr@@GLIBC_2.2.5+0xc0>
  405782:	bb 21 01 00 00       	mov    $0x121,%ebx
  405787:	80 78 71 00          	cmpb   $0x0,0x71(%rax)
  40578b:	0f 85 e4 14 00 00    	jne    406c75 <__ctype_b_loc@plt+0x4c55>
  405791:	e9 0f 15 00 00       	jmpq   406ca5 <__ctype_b_loc@plt+0x4c85>
  405796:	8b 05 f4 3b 22 00    	mov    0x223bf4(%rip),%eax        # 629390 <_fini@@Base+0x20d16c>
  40579c:	89 05 26 3b 22 00    	mov    %eax,0x223b26(%rip)        # 6292c8 <_fini@@Base+0x20d0a4>
  4057a2:	89 05 18 3b 22 00    	mov    %eax,0x223b18(%rip)        # 6292c0 <_fini@@Base+0x20d09c>
  4057a8:	8b 05 e6 3b 22 00    	mov    0x223be6(%rip),%eax        # 629394 <_fini@@Base+0x20d170>
  4057ae:	89 05 10 3b 22 00    	mov    %eax,0x223b10(%rip)        # 6292c4 <_fini@@Base+0x20d0a0>
  4057b4:	8b 0d fe 3c 22 00    	mov    0x223cfe(%rip),%ecx        # 6294b8 <stderr@@GLIBC_2.2.5+0xf8>
  4057ba:	8d 14 01             	lea    (%rcx,%rax,1),%edx
  4057bd:	8d 44 01 ff          	lea    -0x1(%rcx,%rax,1),%eax
  4057c1:	89 05 05 3b 22 00    	mov    %eax,0x223b05(%rip)        # 6292cc <_fini@@Base+0x20d0a8>
  4057c7:	89 15 c7 3b 22 00    	mov    %edx,0x223bc7(%rip)        # 629394 <_fini@@Base+0x20d170>
  4057cd:	c7 05 15 3c 22 00 2b 	movl   $0x12b,0x223c15(%rip)        # 6293ec <stderr@@GLIBC_2.2.5+0x2c>
  4057d4:	01 00 00 
  4057d7:	48 8b 05 a2 3c 22 00 	mov    0x223ca2(%rip),%rax        # 629480 <stderr@@GLIBC_2.2.5+0xc0>
  4057de:	bb 2b 01 00 00       	mov    $0x12b,%ebx
  4057e3:	80 78 71 00          	cmpb   $0x0,0x71(%rax)
  4057e7:	0f 85 57 13 00 00    	jne    406b44 <__ctype_b_loc@plt+0x4b24>
  4057ed:	e9 b3 14 00 00       	jmpq   406ca5 <__ctype_b_loc@plt+0x4c85>
  4057f2:	8b 05 98 3b 22 00    	mov    0x223b98(%rip),%eax        # 629390 <_fini@@Base+0x20d16c>
  4057f8:	89 05 ca 3a 22 00    	mov    %eax,0x223aca(%rip)        # 6292c8 <_fini@@Base+0x20d0a4>
  4057fe:	89 05 bc 3a 22 00    	mov    %eax,0x223abc(%rip)        # 6292c0 <_fini@@Base+0x20d09c>
  405804:	8b 05 8a 3b 22 00    	mov    0x223b8a(%rip),%eax        # 629394 <_fini@@Base+0x20d170>
  40580a:	89 05 b4 3a 22 00    	mov    %eax,0x223ab4(%rip)        # 6292c4 <_fini@@Base+0x20d0a0>
  405810:	8b 0d a2 3c 22 00    	mov    0x223ca2(%rip),%ecx        # 6294b8 <stderr@@GLIBC_2.2.5+0xf8>
  405816:	8d 14 01             	lea    (%rcx,%rax,1),%edx
  405819:	8d 44 01 ff          	lea    -0x1(%rcx,%rax,1),%eax
  40581d:	89 05 a9 3a 22 00    	mov    %eax,0x223aa9(%rip)        # 6292cc <_fini@@Base+0x20d0a8>
  405823:	89 15 6b 3b 22 00    	mov    %edx,0x223b6b(%rip)        # 629394 <_fini@@Base+0x20d170>
  405829:	c7 05 b9 3b 22 00 0d 	movl   $0x10d,0x223bb9(%rip)        # 6293ec <stderr@@GLIBC_2.2.5+0x2c>
  405830:	01 00 00 
  405833:	48 8b 05 46 3c 22 00 	mov    0x223c46(%rip),%rax        # 629480 <stderr@@GLIBC_2.2.5+0xc0>
  40583a:	bb 0d 01 00 00       	mov    $0x10d,%ebx
  40583f:	80 78 71 00          	cmpb   $0x0,0x71(%rax)
  405843:	0f 85 fb 12 00 00    	jne    406b44 <__ctype_b_loc@plt+0x4b24>
  405849:	e9 57 14 00 00       	jmpq   406ca5 <__ctype_b_loc@plt+0x4c85>
  40584e:	8b 05 3c 3b 22 00    	mov    0x223b3c(%rip),%eax        # 629390 <_fini@@Base+0x20d16c>
  405854:	89 05 6e 3a 22 00    	mov    %eax,0x223a6e(%rip)        # 6292c8 <_fini@@Base+0x20d0a4>
  40585a:	89 05 60 3a 22 00    	mov    %eax,0x223a60(%rip)        # 6292c0 <_fini@@Base+0x20d09c>
  405860:	8b 05 2e 3b 22 00    	mov    0x223b2e(%rip),%eax        # 629394 <_fini@@Base+0x20d170>
  405866:	89 05 58 3a 22 00    	mov    %eax,0x223a58(%rip)        # 6292c4 <_fini@@Base+0x20d0a0>
  40586c:	8b 0d 46 3c 22 00    	mov    0x223c46(%rip),%ecx        # 6294b8 <stderr@@GLIBC_2.2.5+0xf8>
  405872:	8d 14 01             	lea    (%rcx,%rax,1),%edx
  405875:	8d 44 01 ff          	lea    -0x1(%rcx,%rax,1),%eax
  405879:	89 05 4d 3a 22 00    	mov    %eax,0x223a4d(%rip)        # 6292cc <_fini@@Base+0x20d0a8>
  40587f:	89 15 0f 3b 22 00    	mov    %edx,0x223b0f(%rip)        # 629394 <_fini@@Base+0x20d170>
  405885:	c7 05 5d 3b 22 00 37 	movl   $0x137,0x223b5d(%rip)        # 6293ec <stderr@@GLIBC_2.2.5+0x2c>
  40588c:	01 00 00 
  40588f:	48 8b 05 ea 3b 22 00 	mov    0x223bea(%rip),%rax        # 629480 <stderr@@GLIBC_2.2.5+0xc0>
  405896:	bb 37 01 00 00       	mov    $0x137,%ebx
  40589b:	80 78 71 00          	cmpb   $0x0,0x71(%rax)
  40589f:	0f 85 9f 12 00 00    	jne    406b44 <__ctype_b_loc@plt+0x4b24>
  4058a5:	e9 fb 13 00 00       	jmpq   406ca5 <__ctype_b_loc@plt+0x4c85>
  4058aa:	8b 05 e0 3a 22 00    	mov    0x223ae0(%rip),%eax        # 629390 <_fini@@Base+0x20d16c>
  4058b0:	89 05 12 3a 22 00    	mov    %eax,0x223a12(%rip)        # 6292c8 <_fini@@Base+0x20d0a4>
  4058b6:	89 05 04 3a 22 00    	mov    %eax,0x223a04(%rip)        # 6292c0 <_fini@@Base+0x20d09c>
  4058bc:	8b 05 d2 3a 22 00    	mov    0x223ad2(%rip),%eax        # 629394 <_fini@@Base+0x20d170>
  4058c2:	89 05 fc 39 22 00    	mov    %eax,0x2239fc(%rip)        # 6292c4 <_fini@@Base+0x20d0a0>
  4058c8:	8b 0d ea 3b 22 00    	mov    0x223bea(%rip),%ecx        # 6294b8 <stderr@@GLIBC_2.2.5+0xf8>
  4058ce:	8d 14 01             	lea    (%rcx,%rax,1),%edx
  4058d1:	8d 44 01 ff          	lea    -0x1(%rcx,%rax,1),%eax
  4058d5:	89 05 f1 39 22 00    	mov    %eax,0x2239f1(%rip)        # 6292cc <_fini@@Base+0x20d0a8>
  4058db:	89 15 b3 3a 22 00    	mov    %edx,0x223ab3(%rip)        # 629394 <_fini@@Base+0x20d170>
  4058e1:	48 8b 15 c8 3b 22 00 	mov    0x223bc8(%rip),%rdx        # 6294b0 <stderr@@GLIBC_2.2.5+0xf0>
  4058e8:	48 89 15 b9 3b 22 00 	mov    %rdx,0x223bb9(%rip)        # 6294a8 <stderr@@GLIBC_2.2.5+0xe8>
  4058ef:	c7 05 f3 3a 22 00 03 	movl   $0x103,0x223af3(%rip)        # 6293ec <stderr@@GLIBC_2.2.5+0x2c>
  4058f6:	01 00 00 
  4058f9:	48 8b 05 80 3b 22 00 	mov    0x223b80(%rip),%rax        # 629480 <stderr@@GLIBC_2.2.5+0xc0>
  405900:	bb 03 01 00 00       	mov    $0x103,%ebx
  405905:	80 78 71 00          	cmpb   $0x0,0x71(%rax)
  405909:	0f 84 96 13 00 00    	je     406ca5 <__ctype_b_loc@plt+0x4c85>
  40590f:	48 85 d2             	test   %rdx,%rdx
  405912:	0f 84 aa 13 00 00    	je     406cc2 <__ctype_b_loc@plt+0x4ca2>
  405918:	bf 4d 2f 42 00       	mov    $0x422f4d,%edi
  40591d:	be c1 0b 42 00       	mov    $0x420bc1,%esi
  405922:	e9 64 13 00 00       	jmpq   406c8b <__ctype_b_loc@plt+0x4c6b>
  405927:	8b 05 63 3a 22 00    	mov    0x223a63(%rip),%eax        # 629390 <_fini@@Base+0x20d16c>
  40592d:	89 05 95 39 22 00    	mov    %eax,0x223995(%rip)        # 6292c8 <_fini@@Base+0x20d0a4>
  405933:	89 05 87 39 22 00    	mov    %eax,0x223987(%rip)        # 6292c0 <_fini@@Base+0x20d09c>
  405939:	8b 05 55 3a 22 00    	mov    0x223a55(%rip),%eax        # 629394 <_fini@@Base+0x20d170>
  40593f:	89 05 7f 39 22 00    	mov    %eax,0x22397f(%rip)        # 6292c4 <_fini@@Base+0x20d0a0>
  405945:	8b 0d 6d 3b 22 00    	mov    0x223b6d(%rip),%ecx        # 6294b8 <stderr@@GLIBC_2.2.5+0xf8>
  40594b:	8d 14 01             	lea    (%rcx,%rax,1),%edx
  40594e:	8d 44 01 ff          	lea    -0x1(%rcx,%rax,1),%eax
  405952:	89 05 74 39 22 00    	mov    %eax,0x223974(%rip)        # 6292cc <_fini@@Base+0x20d0a8>
  405958:	89 15 36 3a 22 00    	mov    %edx,0x223a36(%rip)        # 629394 <_fini@@Base+0x20d170>
  40595e:	c7 05 84 3a 22 00 11 	movl   $0x111,0x223a84(%rip)        # 6293ec <stderr@@GLIBC_2.2.5+0x2c>
  405965:	01 00 00 
  405968:	48 8b 05 11 3b 22 00 	mov    0x223b11(%rip),%rax        # 629480 <stderr@@GLIBC_2.2.5+0xc0>
  40596f:	bb 11 01 00 00       	mov    $0x111,%ebx
  405974:	80 78 71 00          	cmpb   $0x0,0x71(%rax)
  405978:	0f 85 f7 12 00 00    	jne    406c75 <__ctype_b_loc@plt+0x4c55>
  40597e:	e9 22 13 00 00       	jmpq   406ca5 <__ctype_b_loc@plt+0x4c85>
  405983:	8b 05 07 3a 22 00    	mov    0x223a07(%rip),%eax        # 629390 <_fini@@Base+0x20d16c>
  405989:	89 05 39 39 22 00    	mov    %eax,0x223939(%rip)        # 6292c8 <_fini@@Base+0x20d0a4>
  40598f:	89 05 2b 39 22 00    	mov    %eax,0x22392b(%rip)        # 6292c0 <_fini@@Base+0x20d09c>
  405995:	8b 05 f9 39 22 00    	mov    0x2239f9(%rip),%eax        # 629394 <_fini@@Base+0x20d170>
  40599b:	89 05 23 39 22 00    	mov    %eax,0x223923(%rip)        # 6292c4 <_fini@@Base+0x20d0a0>
  4059a1:	8b 0d 11 3b 22 00    	mov    0x223b11(%rip),%ecx        # 6294b8 <stderr@@GLIBC_2.2.5+0xf8>
  4059a7:	8d 14 01             	lea    (%rcx,%rax,1),%edx
  4059aa:	8d 44 01 ff          	lea    -0x1(%rcx,%rax,1),%eax
  4059ae:	89 05 18 39 22 00    	mov    %eax,0x223918(%rip)        # 6292cc <_fini@@Base+0x20d0a8>
  4059b4:	89 15 da 39 22 00    	mov    %edx,0x2239da(%rip)        # 629394 <_fini@@Base+0x20d170>
  4059ba:	c7 05 28 3a 22 00 1a 	movl   $0x11a,0x223a28(%rip)        # 6293ec <stderr@@GLIBC_2.2.5+0x2c>
  4059c1:	01 00 00 
  4059c4:	48 8b 05 b5 3a 22 00 	mov    0x223ab5(%rip),%rax        # 629480 <stderr@@GLIBC_2.2.5+0xc0>
  4059cb:	bb 1a 01 00 00       	mov    $0x11a,%ebx
  4059d0:	80 78 71 00          	cmpb   $0x0,0x71(%rax)
  4059d4:	0f 85 9b 12 00 00    	jne    406c75 <__ctype_b_loc@plt+0x4c55>
  4059da:	e9 c6 12 00 00       	jmpq   406ca5 <__ctype_b_loc@plt+0x4c85>
  4059df:	8b 05 ab 39 22 00    	mov    0x2239ab(%rip),%eax        # 629390 <_fini@@Base+0x20d16c>
  4059e5:	89 05 dd 38 22 00    	mov    %eax,0x2238dd(%rip)        # 6292c8 <_fini@@Base+0x20d0a4>
  4059eb:	89 05 cf 38 22 00    	mov    %eax,0x2238cf(%rip)        # 6292c0 <_fini@@Base+0x20d09c>
  4059f1:	8b 05 9d 39 22 00    	mov    0x22399d(%rip),%eax        # 629394 <_fini@@Base+0x20d170>
  4059f7:	89 05 c7 38 22 00    	mov    %eax,0x2238c7(%rip)        # 6292c4 <_fini@@Base+0x20d0a0>
  4059fd:	8b 0d b5 3a 22 00    	mov    0x223ab5(%rip),%ecx        # 6294b8 <stderr@@GLIBC_2.2.5+0xf8>
  405a03:	8d 14 01             	lea    (%rcx,%rax,1),%edx
  405a06:	8d 44 01 ff          	lea    -0x1(%rcx,%rax,1),%eax
  405a0a:	89 05 bc 38 22 00    	mov    %eax,0x2238bc(%rip)        # 6292cc <_fini@@Base+0x20d0a8>
  405a10:	89 15 7e 39 22 00    	mov    %edx,0x22397e(%rip)        # 629394 <_fini@@Base+0x20d170>
  405a16:	c7 05 cc 39 22 00 22 	movl   $0x122,0x2239cc(%rip)        # 6293ec <stderr@@GLIBC_2.2.5+0x2c>
  405a1d:	01 00 00 
  405a20:	48 8b 05 59 3a 22 00 	mov    0x223a59(%rip),%rax        # 629480 <stderr@@GLIBC_2.2.5+0xc0>
  405a27:	bb 22 01 00 00       	mov    $0x122,%ebx
  405a2c:	80 78 71 00          	cmpb   $0x0,0x71(%rax)
  405a30:	0f 85 3f 12 00 00    	jne    406c75 <__ctype_b_loc@plt+0x4c55>
  405a36:	e9 6a 12 00 00       	jmpq   406ca5 <__ctype_b_loc@plt+0x4c85>
  405a3b:	8b 05 4f 39 22 00    	mov    0x22394f(%rip),%eax        # 629390 <_fini@@Base+0x20d16c>
  405a41:	89 05 81 38 22 00    	mov    %eax,0x223881(%rip)        # 6292c8 <_fini@@Base+0x20d0a4>
  405a47:	89 05 73 38 22 00    	mov    %eax,0x223873(%rip)        # 6292c0 <_fini@@Base+0x20d09c>
  405a4d:	8b 05 41 39 22 00    	mov    0x223941(%rip),%eax        # 629394 <_fini@@Base+0x20d170>
  405a53:	89 05 6b 38 22 00    	mov    %eax,0x22386b(%rip)        # 6292c4 <_fini@@Base+0x20d0a0>
  405a59:	8b 0d 59 3a 22 00    	mov    0x223a59(%rip),%ecx        # 6294b8 <stderr@@GLIBC_2.2.5+0xf8>
  405a5f:	8d 14 01             	lea    (%rcx,%rax,1),%edx
  405a62:	8d 44 01 ff          	lea    -0x1(%rcx,%rax,1),%eax
  405a66:	89 05 60 38 22 00    	mov    %eax,0x223860(%rip)        # 6292cc <_fini@@Base+0x20d0a8>
  405a6c:	89 15 22 39 22 00    	mov    %edx,0x223922(%rip)        # 629394 <_fini@@Base+0x20d170>
  405a72:	c7 05 70 39 22 00 25 	movl   $0x125,0x223970(%rip)        # 6293ec <stderr@@GLIBC_2.2.5+0x2c>
  405a79:	01 00 00 
  405a7c:	48 8b 05 fd 39 22 00 	mov    0x2239fd(%rip),%rax        # 629480 <stderr@@GLIBC_2.2.5+0xc0>
  405a83:	bb 25 01 00 00       	mov    $0x125,%ebx
  405a88:	80 78 71 00          	cmpb   $0x0,0x71(%rax)
  405a8c:	0f 85 b2 10 00 00    	jne    406b44 <__ctype_b_loc@plt+0x4b24>
  405a92:	e9 0e 12 00 00       	jmpq   406ca5 <__ctype_b_loc@plt+0x4c85>
  405a97:	8b 05 f3 38 22 00    	mov    0x2238f3(%rip),%eax        # 629390 <_fini@@Base+0x20d16c>
  405a9d:	89 05 25 38 22 00    	mov    %eax,0x223825(%rip)        # 6292c8 <_fini@@Base+0x20d0a4>
  405aa3:	89 05 17 38 22 00    	mov    %eax,0x223817(%rip)        # 6292c0 <_fini@@Base+0x20d09c>
  405aa9:	8b 05 e5 38 22 00    	mov    0x2238e5(%rip),%eax        # 629394 <_fini@@Base+0x20d170>
  405aaf:	89 05 0f 38 22 00    	mov    %eax,0x22380f(%rip)        # 6292c4 <_fini@@Base+0x20d0a0>
  405ab5:	8b 0d fd 39 22 00    	mov    0x2239fd(%rip),%ecx        # 6294b8 <stderr@@GLIBC_2.2.5+0xf8>
  405abb:	8d 14 01             	lea    (%rcx,%rax,1),%edx
  405abe:	8d 44 01 ff          	lea    -0x1(%rcx,%rax,1),%eax
  405ac2:	89 05 04 38 22 00    	mov    %eax,0x223804(%rip)        # 6292cc <_fini@@Base+0x20d0a8>
  405ac8:	89 15 c6 38 22 00    	mov    %edx,0x2238c6(%rip)        # 629394 <_fini@@Base+0x20d170>
  405ace:	c7 05 14 39 22 00 2e 	movl   $0x12e,0x223914(%rip)        # 6293ec <stderr@@GLIBC_2.2.5+0x2c>
  405ad5:	01 00 00 
  405ad8:	48 8b 05 a1 39 22 00 	mov    0x2239a1(%rip),%rax        # 629480 <stderr@@GLIBC_2.2.5+0xc0>
  405adf:	bb 2e 01 00 00       	mov    $0x12e,%ebx
  405ae4:	80 78 71 00          	cmpb   $0x0,0x71(%rax)
  405ae8:	0f 85 56 10 00 00    	jne    406b44 <__ctype_b_loc@plt+0x4b24>
  405aee:	e9 b2 11 00 00       	jmpq   406ca5 <__ctype_b_loc@plt+0x4c85>
  405af3:	8b 05 97 38 22 00    	mov    0x223897(%rip),%eax        # 629390 <_fini@@Base+0x20d16c>
  405af9:	89 05 c9 37 22 00    	mov    %eax,0x2237c9(%rip)        # 6292c8 <_fini@@Base+0x20d0a4>
  405aff:	89 05 bb 37 22 00    	mov    %eax,0x2237bb(%rip)        # 6292c0 <_fini@@Base+0x20d09c>
  405b05:	8b 05 89 38 22 00    	mov    0x223889(%rip),%eax        # 629394 <_fini@@Base+0x20d170>
  405b0b:	89 05 b3 37 22 00    	mov    %eax,0x2237b3(%rip)        # 6292c4 <_fini@@Base+0x20d0a0>
  405b11:	8b 0d a1 39 22 00    	mov    0x2239a1(%rip),%ecx        # 6294b8 <stderr@@GLIBC_2.2.5+0xf8>
  405b17:	8d 14 01             	lea    (%rcx,%rax,1),%edx
  405b1a:	8d 44 01 ff          	lea    -0x1(%rcx,%rax,1),%eax
  405b1e:	89 05 a8 37 22 00    	mov    %eax,0x2237a8(%rip)        # 6292cc <_fini@@Base+0x20d0a8>
  405b24:	89 15 6a 38 22 00    	mov    %edx,0x22386a(%rip)        # 629394 <_fini@@Base+0x20d170>
  405b2a:	c7 05 b8 38 22 00 2c 	movl   $0x12c,0x2238b8(%rip)        # 6293ec <stderr@@GLIBC_2.2.5+0x2c>
  405b31:	01 00 00 
  405b34:	48 8b 05 45 39 22 00 	mov    0x223945(%rip),%rax        # 629480 <stderr@@GLIBC_2.2.5+0xc0>
  405b3b:	bb 2c 01 00 00       	mov    $0x12c,%ebx
  405b40:	80 78 71 00          	cmpb   $0x0,0x71(%rax)
  405b44:	0f 85 fa 0f 00 00    	jne    406b44 <__ctype_b_loc@plt+0x4b24>
  405b4a:	e9 56 11 00 00       	jmpq   406ca5 <__ctype_b_loc@plt+0x4c85>
  405b4f:	8b 05 3b 38 22 00    	mov    0x22383b(%rip),%eax        # 629390 <_fini@@Base+0x20d16c>
  405b55:	89 05 6d 37 22 00    	mov    %eax,0x22376d(%rip)        # 6292c8 <_fini@@Base+0x20d0a4>
  405b5b:	89 05 5f 37 22 00    	mov    %eax,0x22375f(%rip)        # 6292c0 <_fini@@Base+0x20d09c>
  405b61:	8b 05 2d 38 22 00    	mov    0x22382d(%rip),%eax        # 629394 <_fini@@Base+0x20d170>
  405b67:	89 05 57 37 22 00    	mov    %eax,0x223757(%rip)        # 6292c4 <_fini@@Base+0x20d0a0>
  405b6d:	8b 0d 45 39 22 00    	mov    0x223945(%rip),%ecx        # 6294b8 <stderr@@GLIBC_2.2.5+0xf8>
  405b73:	8d 14 01             	lea    (%rcx,%rax,1),%edx
  405b76:	8d 44 01 ff          	lea    -0x1(%rcx,%rax,1),%eax
  405b7a:	89 05 4c 37 22 00    	mov    %eax,0x22374c(%rip)        # 6292cc <_fini@@Base+0x20d0a8>
  405b80:	89 15 0e 38 22 00    	mov    %edx,0x22380e(%rip)        # 629394 <_fini@@Base+0x20d170>
  405b86:	c7 05 5c 38 22 00 07 	movl   $0x107,0x22385c(%rip)        # 6293ec <stderr@@GLIBC_2.2.5+0x2c>
  405b8d:	01 00 00 
  405b90:	48 8b 05 e9 38 22 00 	mov    0x2238e9(%rip),%rax        # 629480 <stderr@@GLIBC_2.2.5+0xc0>
  405b97:	bb 07 01 00 00       	mov    $0x107,%ebx
  405b9c:	80 78 71 00          	cmpb   $0x0,0x71(%rax)
  405ba0:	0f 85 9e 0f 00 00    	jne    406b44 <__ctype_b_loc@plt+0x4b24>
  405ba6:	e9 fa 10 00 00       	jmpq   406ca5 <__ctype_b_loc@plt+0x4c85>
  405bab:	8b 05 df 37 22 00    	mov    0x2237df(%rip),%eax        # 629390 <_fini@@Base+0x20d16c>
  405bb1:	89 05 11 37 22 00    	mov    %eax,0x223711(%rip)        # 6292c8 <_fini@@Base+0x20d0a4>
  405bb7:	89 05 03 37 22 00    	mov    %eax,0x223703(%rip)        # 6292c0 <_fini@@Base+0x20d09c>
  405bbd:	8b 05 d1 37 22 00    	mov    0x2237d1(%rip),%eax        # 629394 <_fini@@Base+0x20d170>
  405bc3:	89 05 fb 36 22 00    	mov    %eax,0x2236fb(%rip)        # 6292c4 <_fini@@Base+0x20d0a0>
  405bc9:	8b 0d e9 38 22 00    	mov    0x2238e9(%rip),%ecx        # 6294b8 <stderr@@GLIBC_2.2.5+0xf8>
  405bcf:	8d 14 01             	lea    (%rcx,%rax,1),%edx
  405bd2:	8d 44 01 ff          	lea    -0x1(%rcx,%rax,1),%eax
  405bd6:	89 05 f0 36 22 00    	mov    %eax,0x2236f0(%rip)        # 6292cc <_fini@@Base+0x20d0a8>
  405bdc:	89 15 b2 37 22 00    	mov    %edx,0x2237b2(%rip)        # 629394 <_fini@@Base+0x20d170>
  405be2:	c7 05 00 38 22 00 0f 	movl   $0x10f,0x223800(%rip)        # 6293ec <stderr@@GLIBC_2.2.5+0x2c>
  405be9:	01 00 00 
  405bec:	48 8b 05 8d 38 22 00 	mov    0x22388d(%rip),%rax        # 629480 <stderr@@GLIBC_2.2.5+0xc0>
  405bf3:	bb 0f 01 00 00       	mov    $0x10f,%ebx
  405bf8:	80 78 71 00          	cmpb   $0x0,0x71(%rax)
  405bfc:	0f 85 73 10 00 00    	jne    406c75 <__ctype_b_loc@plt+0x4c55>
  405c02:	e9 9e 10 00 00       	jmpq   406ca5 <__ctype_b_loc@plt+0x4c85>
  405c07:	8b 05 83 37 22 00    	mov    0x223783(%rip),%eax        # 629390 <_fini@@Base+0x20d16c>
  405c0d:	89 05 b5 36 22 00    	mov    %eax,0x2236b5(%rip)        # 6292c8 <_fini@@Base+0x20d0a4>
  405c13:	89 05 a7 36 22 00    	mov    %eax,0x2236a7(%rip)        # 6292c0 <_fini@@Base+0x20d09c>
  405c19:	8b 05 75 37 22 00    	mov    0x223775(%rip),%eax        # 629394 <_fini@@Base+0x20d170>
  405c1f:	89 05 9f 36 22 00    	mov    %eax,0x22369f(%rip)        # 6292c4 <_fini@@Base+0x20d0a0>
  405c25:	8b 0d 8d 38 22 00    	mov    0x22388d(%rip),%ecx        # 6294b8 <stderr@@GLIBC_2.2.5+0xf8>
  405c2b:	8d 14 01             	lea    (%rcx,%rax,1),%edx
  405c2e:	8d 44 01 ff          	lea    -0x1(%rcx,%rax,1),%eax
  405c32:	89 05 94 36 22 00    	mov    %eax,0x223694(%rip)        # 6292cc <_fini@@Base+0x20d0a8>
  405c38:	89 15 56 37 22 00    	mov    %edx,0x223756(%rip)        # 629394 <_fini@@Base+0x20d170>
  405c3e:	c7 05 a4 37 22 00 17 	movl   $0x117,0x2237a4(%rip)        # 6293ec <stderr@@GLIBC_2.2.5+0x2c>
  405c45:	01 00 00 
  405c48:	48 8b 05 31 38 22 00 	mov    0x223831(%rip),%rax        # 629480 <stderr@@GLIBC_2.2.5+0xc0>
  405c4f:	bb 17 01 00 00       	mov    $0x117,%ebx
  405c54:	80 78 71 00          	cmpb   $0x0,0x71(%rax)
  405c58:	0f 85 17 10 00 00    	jne    406c75 <__ctype_b_loc@plt+0x4c55>
  405c5e:	e9 42 10 00 00       	jmpq   406ca5 <__ctype_b_loc@plt+0x4c85>
  405c63:	8b 05 27 37 22 00    	mov    0x223727(%rip),%eax        # 629390 <_fini@@Base+0x20d16c>
  405c69:	89 05 59 36 22 00    	mov    %eax,0x223659(%rip)        # 6292c8 <_fini@@Base+0x20d0a4>
  405c6f:	89 05 4b 36 22 00    	mov    %eax,0x22364b(%rip)        # 6292c0 <_fini@@Base+0x20d09c>
  405c75:	8b 05 19 37 22 00    	mov    0x223719(%rip),%eax        # 629394 <_fini@@Base+0x20d170>
  405c7b:	89 05 43 36 22 00    	mov    %eax,0x223643(%rip)        # 6292c4 <_fini@@Base+0x20d0a0>
  405c81:	8b 0d 31 38 22 00    	mov    0x223831(%rip),%ecx        # 6294b8 <stderr@@GLIBC_2.2.5+0xf8>
  405c87:	8d 14 01             	lea    (%rcx,%rax,1),%edx
  405c8a:	8d 44 01 ff          	lea    -0x1(%rcx,%rax,1),%eax
  405c8e:	89 05 38 36 22 00    	mov    %eax,0x223638(%rip)        # 6292cc <_fini@@Base+0x20d0a8>
  405c94:	89 15 fa 36 22 00    	mov    %edx,0x2236fa(%rip)        # 629394 <_fini@@Base+0x20d170>
  405c9a:	c7 05 48 37 22 00 1f 	movl   $0x11f,0x223748(%rip)        # 6293ec <stderr@@GLIBC_2.2.5+0x2c>
  405ca1:	01 00 00 
  405ca4:	48 8b 05 d5 37 22 00 	mov    0x2237d5(%rip),%rax        # 629480 <stderr@@GLIBC_2.2.5+0xc0>
  405cab:	bb 1f 01 00 00       	mov    $0x11f,%ebx
  405cb0:	80 78 71 00          	cmpb   $0x0,0x71(%rax)
  405cb4:	0f 85 bb 0f 00 00    	jne    406c75 <__ctype_b_loc@plt+0x4c55>
  405cba:	e9 e6 0f 00 00       	jmpq   406ca5 <__ctype_b_loc@plt+0x4c85>
  405cbf:	8b 05 cb 36 22 00    	mov    0x2236cb(%rip),%eax        # 629390 <_fini@@Base+0x20d16c>
  405cc5:	89 05 fd 35 22 00    	mov    %eax,0x2235fd(%rip)        # 6292c8 <_fini@@Base+0x20d0a4>
  405ccb:	89 05 ef 35 22 00    	mov    %eax,0x2235ef(%rip)        # 6292c0 <_fini@@Base+0x20d09c>
  405cd1:	8b 05 bd 36 22 00    	mov    0x2236bd(%rip),%eax        # 629394 <_fini@@Base+0x20d170>
  405cd7:	89 05 e7 35 22 00    	mov    %eax,0x2235e7(%rip)        # 6292c4 <_fini@@Base+0x20d0a0>
  405cdd:	8b 0d d5 37 22 00    	mov    0x2237d5(%rip),%ecx        # 6294b8 <stderr@@GLIBC_2.2.5+0xf8>
  405ce3:	8d 14 01             	lea    (%rcx,%rax,1),%edx
  405ce6:	8d 44 01 ff          	lea    -0x1(%rcx,%rax,1),%eax
  405cea:	89 05 dc 35 22 00    	mov    %eax,0x2235dc(%rip)        # 6292cc <_fini@@Base+0x20d0a8>
  405cf0:	89 15 9e 36 22 00    	mov    %edx,0x22369e(%rip)        # 629394 <_fini@@Base+0x20d170>
  405cf6:	c7 05 ec 36 22 00 27 	movl   $0x127,0x2236ec(%rip)        # 6293ec <stderr@@GLIBC_2.2.5+0x2c>
  405cfd:	01 00 00 
  405d00:	48 8b 05 79 37 22 00 	mov    0x223779(%rip),%rax        # 629480 <stderr@@GLIBC_2.2.5+0xc0>
  405d07:	bb 27 01 00 00       	mov    $0x127,%ebx
  405d0c:	80 78 71 00          	cmpb   $0x0,0x71(%rax)
  405d10:	0f 85 2e 0e 00 00    	jne    406b44 <__ctype_b_loc@plt+0x4b24>
  405d16:	e9 8a 0f 00 00       	jmpq   406ca5 <__ctype_b_loc@plt+0x4c85>
  405d1b:	8b 05 6f 36 22 00    	mov    0x22366f(%rip),%eax        # 629390 <_fini@@Base+0x20d16c>
  405d21:	89 05 a1 35 22 00    	mov    %eax,0x2235a1(%rip)        # 6292c8 <_fini@@Base+0x20d0a4>
  405d27:	89 05 93 35 22 00    	mov    %eax,0x223593(%rip)        # 6292c0 <_fini@@Base+0x20d09c>
  405d2d:	8b 05 61 36 22 00    	mov    0x223661(%rip),%eax        # 629394 <_fini@@Base+0x20d170>
  405d33:	89 05 8b 35 22 00    	mov    %eax,0x22358b(%rip)        # 6292c4 <_fini@@Base+0x20d0a0>
  405d39:	8b 0d 79 37 22 00    	mov    0x223779(%rip),%ecx        # 6294b8 <stderr@@GLIBC_2.2.5+0xf8>
  405d3f:	8d 14 01             	lea    (%rcx,%rax,1),%edx
  405d42:	8d 44 01 ff          	lea    -0x1(%rcx,%rax,1),%eax
  405d46:	89 05 80 35 22 00    	mov    %eax,0x223580(%rip)        # 6292cc <_fini@@Base+0x20d0a8>
  405d4c:	89 15 42 36 22 00    	mov    %edx,0x223642(%rip)        # 629394 <_fini@@Base+0x20d170>
  405d52:	c7 05 90 36 22 00 3a 	movl   $0x13a,0x223690(%rip)        # 6293ec <stderr@@GLIBC_2.2.5+0x2c>
  405d59:	01 00 00 
  405d5c:	48 8b 05 1d 37 22 00 	mov    0x22371d(%rip),%rax        # 629480 <stderr@@GLIBC_2.2.5+0xc0>
  405d63:	bb 3a 01 00 00       	mov    $0x13a,%ebx
  405d68:	80 78 71 00          	cmpb   $0x0,0x71(%rax)
  405d6c:	0f 85 d2 0d 00 00    	jne    406b44 <__ctype_b_loc@plt+0x4b24>
  405d72:	e9 2e 0f 00 00       	jmpq   406ca5 <__ctype_b_loc@plt+0x4c85>
  405d77:	8b 05 13 36 22 00    	mov    0x223613(%rip),%eax        # 629390 <_fini@@Base+0x20d16c>
  405d7d:	89 05 45 35 22 00    	mov    %eax,0x223545(%rip)        # 6292c8 <_fini@@Base+0x20d0a4>
  405d83:	89 05 37 35 22 00    	mov    %eax,0x223537(%rip)        # 6292c0 <_fini@@Base+0x20d09c>
  405d89:	8b 05 05 36 22 00    	mov    0x223605(%rip),%eax        # 629394 <_fini@@Base+0x20d170>
  405d8f:	89 05 2f 35 22 00    	mov    %eax,0x22352f(%rip)        # 6292c4 <_fini@@Base+0x20d0a0>
